Archive member included to satisfy reference by file (symbol)

/home/pokitoz/altera/15.1/nios2eds/bin/gnu/H-x86_64-pc-linux-gnu/bin/../lib/gcc/nios2-elf/4.9.2/libgcc.a(lib2-divmod.o)
                              obj/default/msgDMA.o (__udivsi3)
/home/pokitoz/altera/15.1/nios2eds/bin/gnu/H-x86_64-pc-linux-gnu/bin/../lib/gcc/nios2-elf/4.9.2/../../../../../H-x86_64-pc-linux-gnu/nios2-elf/lib/libsmallc.a(lib_a-memcpy.o)
                              obj/default/VGA_DMA_display.o (memcpy)
/home/pokitoz/Dropbox/DE0_SoC_VGA/sw/nios/application/VGA_Display_Gen1_bsp//libhal_bsp.a(alt_iic.o)
                              obj/default/VGA_DMA_display.o (alt_ic_isr_register)
/home/pokitoz/Dropbox/DE0_SoC_VGA/sw/nios/application/VGA_Display_Gen1_bsp//libhal_bsp.a(alt_iic_isr_register.o)
                              /home/pokitoz/Dropbox/DE0_SoC_VGA/sw/nios/application/VGA_Display_Gen1_bsp//libhal_bsp.a(alt_iic.o) (alt_iic_isr_register)
/home/pokitoz/Dropbox/DE0_SoC_VGA/sw/nios/application/VGA_Display_Gen1_bsp//libhal_bsp.a(alt_irq_entry.o)
                              /home/pokitoz/Dropbox/DE0_SoC_VGA/sw/nios/application/VGA_Display_Gen1_bsp//libhal_bsp.a(alt_iic_isr_register.o) (alt_irq_entry)
/home/pokitoz/Dropbox/DE0_SoC_VGA/sw/nios/application/VGA_Display_Gen1_bsp//libhal_bsp.a(alt_irq_handler.o)
                              /home/pokitoz/Dropbox/DE0_SoC_VGA/sw/nios/application/VGA_Display_Gen1_bsp//libhal_bsp.a(alt_iic_isr_register.o) (alt_irq_handler)
/home/pokitoz/Dropbox/DE0_SoC_VGA/sw/nios/application/VGA_Display_Gen1_bsp//libhal_bsp.a(alt_irq_vars.o)
                              /home/pokitoz/Dropbox/DE0_SoC_VGA/sw/nios/application/VGA_Display_Gen1_bsp//libhal_bsp.a(alt_iic.o) (alt_irq_active)
/home/pokitoz/Dropbox/DE0_SoC_VGA/sw/nios/application/VGA_Display_Gen1_bsp//libhal_bsp.a(alt_load.o)
                              /home/pokitoz/Dropbox/DE0_SoC_VGA/sw/nios/application/VGA_Display_Gen1_bsp//obj/HAL/src/crt0.o (alt_load)
/home/pokitoz/Dropbox/DE0_SoC_VGA/sw/nios/application/VGA_Display_Gen1_bsp//libhal_bsp.a(alt_main.o)
                              /home/pokitoz/Dropbox/DE0_SoC_VGA/sw/nios/application/VGA_Display_Gen1_bsp//obj/HAL/src/crt0.o (alt_main)
/home/pokitoz/Dropbox/DE0_SoC_VGA/sw/nios/application/VGA_Display_Gen1_bsp//libhal_bsp.a(alt_printf.o)
                              obj/default/DMA_Read.o (alt_printf)
/home/pokitoz/Dropbox/DE0_SoC_VGA/sw/nios/application/VGA_Display_Gen1_bsp//libhal_bsp.a(alt_putchar.o)
                              /home/pokitoz/Dropbox/DE0_SoC_VGA/sw/nios/application/VGA_Display_Gen1_bsp//libhal_bsp.a(alt_printf.o) (alt_putchar)
/home/pokitoz/Dropbox/DE0_SoC_VGA/sw/nios/application/VGA_Display_Gen1_bsp//libhal_bsp.a(alt_putstr.o)
                              obj/default/VGA_DMA_display.o (alt_putstr)
/home/pokitoz/Dropbox/DE0_SoC_VGA/sw/nios/application/VGA_Display_Gen1_bsp//libhal_bsp.a(alt_sys_init.o)
                              /home/pokitoz/Dropbox/DE0_SoC_VGA/sw/nios/application/VGA_Display_Gen1_bsp//libhal_bsp.a(alt_main.o) (alt_irq_init)
/home/pokitoz/Dropbox/DE0_SoC_VGA/sw/nios/application/VGA_Display_Gen1_bsp//libhal_bsp.a(altera_avalon_jtag_uart_write.o)
                              /home/pokitoz/Dropbox/DE0_SoC_VGA/sw/nios/application/VGA_Display_Gen1_bsp//libhal_bsp.a(alt_putchar.o) (altera_avalon_jtag_uart_write)
/home/pokitoz/Dropbox/DE0_SoC_VGA/sw/nios/application/VGA_Display_Gen1_bsp//libhal_bsp.a(altera_msgdma.o)
                              obj/default/msgDMA.o (alt_msgdma_construct_standard_mm_to_st_descriptor)
/home/pokitoz/Dropbox/DE0_SoC_VGA/sw/nios/application/VGA_Display_Gen1_bsp//libhal_bsp.a(alt_busy_sleep.o)
                              /home/pokitoz/Dropbox/DE0_SoC_VGA/sw/nios/application/VGA_Display_Gen1_bsp//libhal_bsp.a(altera_msgdma.o) (alt_busy_sleep)
/home/pokitoz/Dropbox/DE0_SoC_VGA/sw/nios/application/VGA_Display_Gen1_bsp//libhal_bsp.a(alt_dcache_flush_all.o)
                              /home/pokitoz/Dropbox/DE0_SoC_VGA/sw/nios/application/VGA_Display_Gen1_bsp//libhal_bsp.a(alt_load.o) (alt_dcache_flush_all)
/home/pokitoz/Dropbox/DE0_SoC_VGA/sw/nios/application/VGA_Display_Gen1_bsp//libhal_bsp.a(alt_dev_llist_insert.o)
                              /home/pokitoz/Dropbox/DE0_SoC_VGA/sw/nios/application/VGA_Display_Gen1_bsp//libhal_bsp.a(altera_msgdma.o) (alt_dev_llist_insert)
/home/pokitoz/Dropbox/DE0_SoC_VGA/sw/nios/application/VGA_Display_Gen1_bsp//libhal_bsp.a(alt_errno.o)
                              /home/pokitoz/Dropbox/DE0_SoC_VGA/sw/nios/application/VGA_Display_Gen1_bsp//libhal_bsp.a(altera_msgdma.o) (alt_errno)
/home/pokitoz/Dropbox/DE0_SoC_VGA/sw/nios/application/VGA_Display_Gen1_bsp//libhal_bsp.a(alt_exception_entry.o)
                              /home/pokitoz/Dropbox/DE0_SoC_VGA/sw/nios/application/VGA_Display_Gen1_bsp//libhal_bsp.a(alt_irq_entry.o) (alt_exception)
/home/pokitoz/Dropbox/DE0_SoC_VGA/sw/nios/application/VGA_Display_Gen1_bsp//libhal_bsp.a(alt_find_dev.o)
                              /home/pokitoz/Dropbox/DE0_SoC_VGA/sw/nios/application/VGA_Display_Gen1_bsp//libhal_bsp.a(altera_msgdma.o) (alt_find_dev)
/home/pokitoz/Dropbox/DE0_SoC_VGA/sw/nios/application/VGA_Display_Gen1_bsp//libhal_bsp.a(alt_icache_flush_all.o)
                              /home/pokitoz/Dropbox/DE0_SoC_VGA/sw/nios/application/VGA_Display_Gen1_bsp//libhal_bsp.a(alt_load.o) (alt_icache_flush_all)
/home/pokitoz/Dropbox/DE0_SoC_VGA/sw/nios/application/VGA_Display_Gen1_bsp//libhal_bsp.a(altera_nios2_qsys_irq.o)
                              /home/pokitoz/Dropbox/DE0_SoC_VGA/sw/nios/application/VGA_Display_Gen1_bsp//libhal_bsp.a(alt_sys_init.o) (altera_nios2_qsys_irq_init)
/home/pokitoz/Dropbox/DE0_SoC_VGA/sw/nios/application/VGA_Display_Gen1_bsp//libhal_bsp.a(alt_icache_flush.o)
                              /home/pokitoz/Dropbox/DE0_SoC_VGA/sw/nios/application/VGA_Display_Gen1_bsp//libhal_bsp.a(alt_icache_flush_all.o) (alt_icache_flush)
/home/pokitoz/altera/15.1/nios2eds/bin/gnu/H-x86_64-pc-linux-gnu/bin/../lib/gcc/nios2-elf/4.9.2/../../../../../H-x86_64-pc-linux-gnu/nios2-elf/lib/libsmallc.a(lib_a-int_errno.o)
                              /home/pokitoz/Dropbox/DE0_SoC_VGA/sw/nios/application/VGA_Display_Gen1_bsp//libhal_bsp.a(altera_msgdma.o) (errno)
/home/pokitoz/altera/15.1/nios2eds/bin/gnu/H-x86_64-pc-linux-gnu/bin/../lib/gcc/nios2-elf/4.9.2/../../../../../H-x86_64-pc-linux-gnu/nios2-elf/lib/libsmallc.a(lib_a-memcmp.o)
                              /home/pokitoz/Dropbox/DE0_SoC_VGA/sw/nios/application/VGA_Display_Gen1_bsp//libhal_bsp.a(alt_find_dev.o) (memcmp)
/home/pokitoz/altera/15.1/nios2eds/bin/gnu/H-x86_64-pc-linux-gnu/bin/../lib/gcc/nios2-elf/4.9.2/../../../../../H-x86_64-pc-linux-gnu/nios2-elf/lib/libsmallc.a(lib_a-strlen.o)
                              /home/pokitoz/Dropbox/DE0_SoC_VGA/sw/nios/application/VGA_Display_Gen1_bsp//libhal_bsp.a(alt_putstr.o) (strlen)

Allocating common symbols
Common symbol       size              file

alt_irq             0x100             /home/pokitoz/Dropbox/DE0_SoC_VGA/sw/nios/application/VGA_Display_Gen1_bsp//libhal_bsp.a(alt_irq_handler.o)
descriptor_number   0x4               obj/default/VGA_DMA_display.o
errno               0x4               /home/pokitoz/altera/15.1/nios2eds/bin/gnu/H-x86_64-pc-linux-gnu/bin/../lib/gcc/nios2-elf/4.9.2/../../../../../H-x86_64-pc-linux-gnu/nios2-elf/lib/libsmallc.a(lib_a-int_errno.o)
msgdma_dev          0x60              obj/default/VGA_DMA_display.o
msgdma_desc         0x10              obj/default/VGA_DMA_display.o

Memory Configuration

Name             Origin             Length             Attributes
reset            0x0000000010100000 0x0000000000000020
onchip_memory2_0 0x0000000010100020 0x000000000001ffe0
*default*        0x0000000000000000 0xffffffffffffffff

Linker script and memory map

LOAD /home/pokitoz/Dropbox/DE0_SoC_VGA/sw/nios/application/VGA_Display_Gen1_bsp//obj/HAL/src/crt0.o
LOAD obj/default/DMA_Read.o
LOAD obj/default/VGA_DMA_display.o
LOAD obj/default/VGA_Display.o
LOAD obj/default/msgDMA.o
LOAD /home/pokitoz/altera/15.1/nios2eds/bin/gnu/H-x86_64-pc-linux-gnu/bin/../lib/gcc/nios2-elf/4.9.2/../../../../../H-x86_64-pc-linux-gnu/nios2-elf/lib/libstdc++.a
LOAD /home/pokitoz/altera/15.1/nios2eds/bin/gnu/H-x86_64-pc-linux-gnu/bin/../lib/gcc/nios2-elf/4.9.2/../../../../../H-x86_64-pc-linux-gnu/nios2-elf/lib/libm.a
LOAD /home/pokitoz/altera/15.1/nios2eds/bin/gnu/H-x86_64-pc-linux-gnu/bin/../lib/gcc/nios2-elf/4.9.2/libgcc.a
START GROUP
LOAD /home/pokitoz/altera/15.1/nios2eds/bin/gnu/H-x86_64-pc-linux-gnu/bin/../lib/gcc/nios2-elf/4.9.2/../../../../../H-x86_64-pc-linux-gnu/nios2-elf/lib/libsmallc.a
LOAD /home/pokitoz/altera/15.1/nios2eds/bin/gnu/H-x86_64-pc-linux-gnu/bin/../lib/gcc/nios2-elf/4.9.2/libgcc.a
LOAD /home/pokitoz/Dropbox/DE0_SoC_VGA/sw/nios/application/VGA_Display_Gen1_bsp//libhal_bsp.a
LOAD /home/pokitoz/altera/15.1/nios2eds/bin/gnu/H-x86_64-pc-linux-gnu/bin/../lib/gcc/nios2-elf/4.9.2/../../../../../H-x86_64-pc-linux-gnu/nios2-elf/lib/libm.a
END GROUP
LOAD /home/pokitoz/altera/15.1/nios2eds/bin/gnu/H-x86_64-pc-linux-gnu/bin/../lib/gcc/nios2-elf/4.9.2/libgcc.a
                0x0000000010100000                __alt_mem_onchip_memory2_0 = 0x10100000

.entry          0x0000000010100000       0x20
 *(.entry)
 .entry         0x0000000010100000       0x20 /home/pokitoz/Dropbox/DE0_SoC_VGA/sw/nios/application/VGA_Display_Gen1_bsp//obj/HAL/src/crt0.o
                0x0000000010100000                __reset
                0x000000001010001c                _exit

.exceptions     0x0000000010100020      0x130
                0x0000000010100020                PROVIDE (__ram_exceptions_start, ABSOLUTE (.))
                0x0000000010100020                . = ALIGN (0x20)
 *(.irq)
 *(.exceptions.entry.label)
 .exceptions.entry.label
                0x0000000010100020        0x0 /home/pokitoz/Dropbox/DE0_SoC_VGA/sw/nios/application/VGA_Display_Gen1_bsp//libhal_bsp.a(alt_irq_entry.o)
                0x0000000010100020                alt_irq_entry
 .exceptions.entry.label
                0x0000000010100020        0x0 /home/pokitoz/Dropbox/DE0_SoC_VGA/sw/nios/application/VGA_Display_Gen1_bsp//libhal_bsp.a(alt_exception_entry.o)
                0x0000000010100020                alt_exception
 *(.exceptions.entry.user)
 *(.exceptions.entry.ecc_fatal)
 *(.exceptions.entry)
 .exceptions.entry
                0x0000000010100020       0x54 /home/pokitoz/Dropbox/DE0_SoC_VGA/sw/nios/application/VGA_Display_Gen1_bsp//libhal_bsp.a(alt_exception_entry.o)
 *(.exceptions.irqtest.user)
 *(.exceptions.irqtest)
 .exceptions.irqtest
                0x0000000010100074       0x10 /home/pokitoz/Dropbox/DE0_SoC_VGA/sw/nios/application/VGA_Display_Gen1_bsp//libhal_bsp.a(alt_irq_entry.o)
 *(.exceptions.irqhandler.user)
 *(.exceptions.irqhandler)
 .exceptions.irqhandler
                0x0000000010100084        0x4 /home/pokitoz/Dropbox/DE0_SoC_VGA/sw/nios/application/VGA_Display_Gen1_bsp//libhal_bsp.a(alt_irq_entry.o)
 *(.exceptions.irqreturn.user)
 *(.exceptions.irqreturn)
 .exceptions.irqreturn
                0x0000000010100088        0x4 /home/pokitoz/Dropbox/DE0_SoC_VGA/sw/nios/application/VGA_Display_Gen1_bsp//libhal_bsp.a(alt_irq_entry.o)
 *(.exceptions.notirq.label)
 .exceptions.notirq.label
                0x000000001010008c        0x0 /home/pokitoz/Dropbox/DE0_SoC_VGA/sw/nios/application/VGA_Display_Gen1_bsp//libhal_bsp.a(alt_irq_entry.o)
 *(.exceptions.notirq.user)
 *(.exceptions.notirq)
 .exceptions.notirq
                0x000000001010008c        0x8 /home/pokitoz/Dropbox/DE0_SoC_VGA/sw/nios/application/VGA_Display_Gen1_bsp//libhal_bsp.a(alt_exception_entry.o)
 *(.exceptions.soft.user)
 *(.exceptions.soft)
 *(.exceptions.unknown.user)
 *(.exceptions.unknown)
 .exceptions.unknown
                0x0000000010100094        0x4 /home/pokitoz/Dropbox/DE0_SoC_VGA/sw/nios/application/VGA_Display_Gen1_bsp//libhal_bsp.a(alt_exception_entry.o)
 *(.exceptions.exit.label)
 .exceptions.exit.label
                0x0000000010100098        0x0 /home/pokitoz/Dropbox/DE0_SoC_VGA/sw/nios/application/VGA_Display_Gen1_bsp//libhal_bsp.a(alt_irq_entry.o)
 .exceptions.exit.label
                0x0000000010100098        0x0 /home/pokitoz/Dropbox/DE0_SoC_VGA/sw/nios/application/VGA_Display_Gen1_bsp//libhal_bsp.a(alt_exception_entry.o)
 *(.exceptions.exit.user)
 *(.exceptions.exit)
 .exceptions.exit
                0x0000000010100098       0x54 /home/pokitoz/Dropbox/DE0_SoC_VGA/sw/nios/application/VGA_Display_Gen1_bsp//libhal_bsp.a(alt_exception_entry.o)
 *(.exceptions)
 .exceptions    0x00000000101000ec       0x64 /home/pokitoz/Dropbox/DE0_SoC_VGA/sw/nios/application/VGA_Display_Gen1_bsp//libhal_bsp.a(alt_irq_handler.o)
                0x00000000101000ec                alt_irq_handler
                0x0000000010100150                PROVIDE (__ram_exceptions_end, ABSOLUTE (.))
                0x0000000010100020                PROVIDE (__flash_exceptions_start, LOADADDR (.exceptions))

.text           0x0000000010100150     0x1d00
                0x0000000010100150                PROVIDE (stext, ABSOLUTE (.))
 *(.interp)
 *(.hash)
 *(.dynsym)
 *(.dynstr)
 *(.gnu.version)
 *(.gnu.version_d)
 *(.gnu.version_r)
 *(.rel.init)
 *(.rela.init)
 *(.rel.text .rel.text.* .rel.gnu.linkonce.t.*)
 *(.rela.text .rela.text.* .rela.gnu.linkonce.t.*)
 *(.rel.fini)
 *(.rela.fini)
 *(.rel.rodata .rel.rodata.* .rel.gnu.linkonce.r.*)
 *(.rela.rodata .rela.rodata.* .rela.gnu.linkonce.r.*)
 *(.rel.data .rel.data.* .rel.gnu.linkonce.d.*)
 *(.rela.data .rela.data.* .rela.gnu.linkonce.d.*)
 *(.rel.tdata .rel.tdata.* .rel.gnu.linkonce.td.*)
 *(.rela.tdata .rela.tdata.* .rela.gnu.linkonce.td.*)
 *(.rel.tbss .rel.tbss.* .rel.gnu.linkonce.tb.*)
 *(.rela.tbss .rela.tbss.* .rela.gnu.linkonce.tb.*)
 *(.rel.ctors)
 *(.rela.ctors)
 *(.rel.dtors)
 *(.rela.dtors)
 *(.rel.got)
 *(.rela.got)
 *(.rel.sdata .rel.sdata.* .rel.gnu.linkonce.s.*)
 *(.rela.sdata .rela.sdata.* .rela.gnu.linkonce.s.*)
 *(.rel.sbss .rel.sbss.* .rel.gnu.linkonce.sb.*)
 *(.rela.sbss .rela.sbss.* .rela.gnu.linkonce.sb.*)
 *(.rel.sdata2 .rel.sdata2.* .rel.gnu.linkonce.s2.*)
 *(.rela.sdata2 .rela.sdata2.* .rela.gnu.linkonce.s2.*)
 *(.rel.sbss2 .rel.sbss2.* .rel.gnu.linkonce.sb2.*)
 *(.rela.sbss2 .rela.sbss2.* .rela.gnu.linkonce.sb2.*)
 *(.rel.bss .rel.bss.* .rel.gnu.linkonce.b.*)
 *(.rela.bss .rela.bss.* .rela.gnu.linkonce.b.*)
 *(.rel.plt)
 *(.rela.plt)
 *(.rel.dyn)
 *(.init)
 *(.plt)
 *(.text .stub .text.* .gnu.linkonce.t.*)
 .text          0x0000000010100150       0x4c /home/pokitoz/Dropbox/DE0_SoC_VGA/sw/nios/application/VGA_Display_Gen1_bsp//obj/HAL/src/crt0.o
                0x0000000010100150                _start
 .text          0x000000001010019c      0x144 obj/default/DMA_Read.o
                0x000000001010019c                DMA_Read_configureDMA
                0x00000000101001ac                DMA_Read_setFlags
                0x00000000101001b4                DMA_Read_status
 .text          0x00000000101002e0       0x20 obj/default/VGA_DMA_display.o
                0x00000000101002e0                irq_vsync
 .text.startup  0x0000000010100300      0x128 obj/default/VGA_DMA_display.o
                0x0000000010100300                main
 .text          0x0000000010100428       0x70 obj/default/VGA_Display.o
                0x0000000010100428                VGA_Display_changeVerticalPorch
                0x000000001010043c                VGA_Display_changeHorizontalPorch
                0x0000000010100450                VGA_Display_changeScreenColor
                0x0000000010100458                VGA_Display_set_irq
 .text          0x0000000010100498      0x388 obj/default/msgDMA.o
                0x0000000010100498                msgdma_transfer
                0x000000001010058c                msgdma_create_mm_to_mm_descriptor_list
                0x00000000101006ec                msgdma_create_mm_to_st_descriptor_list
 .text          0x0000000010100820      0x12c /home/pokitoz/altera/15.1/nios2eds/bin/gnu/H-x86_64-pc-linux-gnu/bin/../lib/gcc/nios2-elf/4.9.2/libgcc.a(lib2-divmod.o)
                0x000000001010088c                __divsi3
                0x00000000101008e0                __modsi3
                0x000000001010093c                __udivsi3
                0x0000000010100944                __umodsi3
 .text          0x000000001010094c        0x0 /home/pokitoz/altera/15.1/nios2eds/bin/gnu/H-x86_64-pc-linux-gnu/bin/../lib/gcc/nios2-elf/4.9.2/../../../../../H-x86_64-pc-linux-gnu/nios2-elf/lib/libsmallc.a(lib_a-memcpy.o)
 .text.memcpy   0x000000001010094c       0x28 /home/pokitoz/altera/15.1/nios2eds/bin/gnu/H-x86_64-pc-linux-gnu/bin/../lib/gcc/nios2-elf/4.9.2/../../../../../H-x86_64-pc-linux-gnu/nios2-elf/lib/libsmallc.a(lib_a-memcpy.o)
                0x000000001010094c                memcpy
 .text          0x0000000010100974       0x9c /home/pokitoz/Dropbox/DE0_SoC_VGA/sw/nios/application/VGA_Display_Gen1_bsp//libhal_bsp.a(alt_iic.o)
                0x0000000010100974                alt_ic_isr_register
                0x0000000010100978                alt_ic_irq_enable
                0x00000000101009b8                alt_ic_irq_disable
                0x00000000101009f8                alt_ic_irq_enabled
 .text          0x0000000010100a10       0x68 /home/pokitoz/Dropbox/DE0_SoC_VGA/sw/nios/application/VGA_Display_Gen1_bsp//libhal_bsp.a(alt_iic_isr_register.o)
                0x0000000010100a10                alt_iic_isr_register
 .text          0x0000000010100a78        0x0 /home/pokitoz/Dropbox/DE0_SoC_VGA/sw/nios/application/VGA_Display_Gen1_bsp//libhal_bsp.a(alt_irq_entry.o)
 .text          0x0000000010100a78        0x0 /home/pokitoz/Dropbox/DE0_SoC_VGA/sw/nios/application/VGA_Display_Gen1_bsp//libhal_bsp.a(alt_irq_handler.o)
 .text          0x0000000010100a78        0x0 /home/pokitoz/Dropbox/DE0_SoC_VGA/sw/nios/application/VGA_Display_Gen1_bsp//libhal_bsp.a(alt_irq_vars.o)
 .text          0x0000000010100a78       0xf8 /home/pokitoz/Dropbox/DE0_SoC_VGA/sw/nios/application/VGA_Display_Gen1_bsp//libhal_bsp.a(alt_load.o)
                0x0000000010100a78                alt_load
 .text          0x0000000010100b70       0x2c /home/pokitoz/Dropbox/DE0_SoC_VGA/sw/nios/application/VGA_Display_Gen1_bsp//libhal_bsp.a(alt_main.o)
                0x0000000010100b70                alt_main
 .text          0x0000000010100b9c      0x16c /home/pokitoz/Dropbox/DE0_SoC_VGA/sw/nios/application/VGA_Display_Gen1_bsp//libhal_bsp.a(alt_printf.o)
                0x0000000010100b9c                alt_printf
 .text          0x0000000010100d08       0x48 /home/pokitoz/Dropbox/DE0_SoC_VGA/sw/nios/application/VGA_Display_Gen1_bsp//libhal_bsp.a(alt_putchar.o)
                0x0000000010100d08                alt_putchar
 .text          0x0000000010100d50       0x38 /home/pokitoz/Dropbox/DE0_SoC_VGA/sw/nios/application/VGA_Display_Gen1_bsp//libhal_bsp.a(alt_putstr.o)
                0x0000000010100d50                alt_putstr
 .text          0x0000000010100d88       0x34 /home/pokitoz/Dropbox/DE0_SoC_VGA/sw/nios/application/VGA_Display_Gen1_bsp//libhal_bsp.a(alt_sys_init.o)
                0x0000000010100d88                alt_irq_init
                0x0000000010100da8                alt_sys_init
 .text          0x0000000010100dbc       0x34 /home/pokitoz/Dropbox/DE0_SoC_VGA/sw/nios/application/VGA_Display_Gen1_bsp//libhal_bsp.a(altera_avalon_jtag_uart_write.o)
                0x0000000010100dbc                altera_avalon_jtag_uart_write
 .text          0x0000000010100df0      0xe4c /home/pokitoz/Dropbox/DE0_SoC_VGA/sw/nios/application/VGA_Display_Gen1_bsp//libhal_bsp.a(altera_msgdma.o)
                0x00000000101012e4                alt_msgdma_construct_standard_st_to_mm_descriptor
                0x000000001010131c                alt_msgdma_construct_standard_mm_to_st_descriptor
                0x0000000010101354                alt_msgdma_construct_standard_mm_to_mm_descriptor
                0x0000000010101390                alt_msgdma_construct_extended_st_to_mm_descriptor
                0x0000000010101408                alt_msgdma_construct_extended_mm_to_st_descriptor
                0x0000000010101480                alt_msgdma_construct_extended_mm_to_mm_descriptor
                0x0000000010101510                alt_msgdma_construct_prefetcher_standard_mm_to_mm_descriptor
                0x000000001010155c                alt_msgdma_construct_prefetcher_standard_st_to_mm_descriptor
                0x00000000101015a4                alt_msgdma_construct_prefetcher_standard_mm_to_st_descriptor
                0x00000000101015ec                alt_msgdma_construct_prefetcher_extended_st_to_mm_descriptor
                0x000000001010167c                alt_msgdma_construct_prefetcher_extended_mm_to_st_descriptor
                0x000000001010170c                alt_msgdma_construct_prefetcher_extended_mm_to_mm_descriptor
                0x00000000101017b8                alt_msgdma_prefetcher_add_standard_desc_to_list
                0x0000000010101808                alt_msgdma_prefetcher_add_extended_desc_to_list
                0x000000001010186c                alt_msgdma_prefetcher_set_std_list_own_by_hw_bits
                0x00000000101018a0                alt_msgdma_prefetcher_set_extd_list_own_by_hw_bits
                0x00000000101018e8                alt_msgdma_start_prefetcher_with_list_addr
                0x00000000101019f0                alt_msgdma_start_prefetcher_with_std_desc_list
                0x0000000010101a5c                alt_msgdma_start_prefetcher_with_extd_desc_list
                0x0000000010101ac8                alt_msgdma_open
                0x0000000010101b20                alt_msgdma_init
                0x0000000010101c04                alt_msgdma_register_callback
                0x0000000010101c14                alt_msgdma_standard_descriptor_async_transfer
                0x0000000010101c1c                alt_msgdma_extended_descriptor_async_transfer
                0x0000000010101c28                alt_msgdma_standard_descriptor_sync_transfer
                0x0000000010101c30                alt_msgdma_extended_descriptor_sync_transfer
 .text          0x0000000010101c3c       0x78 /home/pokitoz/Dropbox/DE0_SoC_VGA/sw/nios/application/VGA_Display_Gen1_bsp//libhal_bsp.a(alt_busy_sleep.o)
                0x0000000010101c3c                alt_busy_sleep
 .text          0x0000000010101cb4       0x18 /home/pokitoz/Dropbox/DE0_SoC_VGA/sw/nios/application/VGA_Display_Gen1_bsp//libhal_bsp.a(alt_dcache_flush_all.o)
                0x0000000010101cb4                alt_dcache_flush_all
 .text          0x0000000010101ccc       0x78 /home/pokitoz/Dropbox/DE0_SoC_VGA/sw/nios/application/VGA_Display_Gen1_bsp//libhal_bsp.a(alt_dev_llist_insert.o)
                0x0000000010101ccc                alt_dev_llist_insert
 .text          0x0000000010101d44        0x0 /home/pokitoz/Dropbox/DE0_SoC_VGA/sw/nios/application/VGA_Display_Gen1_bsp//libhal_bsp.a(alt_errno.o)
 .text          0x0000000010101d44        0x0 /home/pokitoz/Dropbox/DE0_SoC_VGA/sw/nios/application/VGA_Display_Gen1_bsp//libhal_bsp.a(alt_exception_entry.o)
 .text          0x0000000010101d44       0x74 /home/pokitoz/Dropbox/DE0_SoC_VGA/sw/nios/application/VGA_Display_Gen1_bsp//libhal_bsp.a(alt_find_dev.o)
                0x0000000010101d44                alt_find_dev
 .text          0x0000000010101db8        0xc /home/pokitoz/Dropbox/DE0_SoC_VGA/sw/nios/application/VGA_Display_Gen1_bsp//libhal_bsp.a(alt_icache_flush_all.o)
                0x0000000010101db8                alt_icache_flush_all
 .text          0x0000000010101dc4        0x8 /home/pokitoz/Dropbox/DE0_SoC_VGA/sw/nios/application/VGA_Display_Gen1_bsp//libhal_bsp.a(altera_nios2_qsys_irq.o)
                0x0000000010101dc4                altera_nios2_qsys_irq_init
 .text          0x0000000010101dcc       0x38 /home/pokitoz/Dropbox/DE0_SoC_VGA/sw/nios/application/VGA_Display_Gen1_bsp//libhal_bsp.a(alt_icache_flush.o)
                0x0000000010101dcc                alt_icache_flush
 .text          0x0000000010101e04        0x0 /home/pokitoz/altera/15.1/nios2eds/bin/gnu/H-x86_64-pc-linux-gnu/bin/../lib/gcc/nios2-elf/4.9.2/../../../../../H-x86_64-pc-linux-gnu/nios2-elf/lib/libsmallc.a(lib_a-int_errno.o)
 .text          0x0000000010101e04        0x0 /home/pokitoz/altera/15.1/nios2eds/bin/gnu/H-x86_64-pc-linux-gnu/bin/../lib/gcc/nios2-elf/4.9.2/../../../../../H-x86_64-pc-linux-gnu/nios2-elf/lib/libsmallc.a(lib_a-memcmp.o)
 .text.memcmp   0x0000000010101e04       0x30 /home/pokitoz/altera/15.1/nios2eds/bin/gnu/H-x86_64-pc-linux-gnu/bin/../lib/gcc/nios2-elf/4.9.2/../../../../../H-x86_64-pc-linux-gnu/nios2-elf/lib/libsmallc.a(lib_a-memcmp.o)
                0x0000000010101e04                memcmp
 .text          0x0000000010101e34        0x0 /home/pokitoz/altera/15.1/nios2eds/bin/gnu/H-x86_64-pc-linux-gnu/bin/../lib/gcc/nios2-elf/4.9.2/../../../../../H-x86_64-pc-linux-gnu/nios2-elf/lib/libsmallc.a(lib_a-strlen.o)
 .text.strlen   0x0000000010101e34       0x1c /home/pokitoz/altera/15.1/nios2eds/bin/gnu/H-x86_64-pc-linux-gnu/bin/../lib/gcc/nios2-elf/4.9.2/../../../../../H-x86_64-pc-linux-gnu/nios2-elf/lib/libsmallc.a(lib_a-strlen.o)
                0x0000000010101e34                strlen
 *(.gnu.warning.*)
 *(.fini)
                0x0000000010101e50                PROVIDE (__etext, ABSOLUTE (.))
                0x0000000010101e50                PROVIDE (_etext, ABSOLUTE (.))
                0x0000000010101e50                PROVIDE (etext, ABSOLUTE (.))
 *(.eh_frame_hdr)
                0x0000000010101e50                . = ALIGN (0x4)
                0x0000000010101e50                PROVIDE (__preinit_array_start, ABSOLUTE (.))
 *(.preinit_array)
                0x0000000010101e50                PROVIDE (__preinit_array_end, ABSOLUTE (.))
                0x0000000010101e50                PROVIDE (__init_array_start, ABSOLUTE (.))
 *(.init_array)
                0x0000000010101e50                PROVIDE (__init_array_end, ABSOLUTE (.))
                0x0000000010101e50                PROVIDE (__fini_array_start, ABSOLUTE (.))
 *(.fini_array)
                0x0000000010101e50                PROVIDE (__fini_array_end, ABSOLUTE (.))
 *(.eh_frame)
 *(.gcc_except_table .gcc_except_table.*)
 *(.dynamic)
                0x0000000010101e50                PROVIDE (__CTOR_LIST__, ABSOLUTE (.))
 *(.ctors)
 *(SORT(.ctors.*))
                0x0000000010101e50                PROVIDE (__CTOR_END__, ABSOLUTE (.))
                0x0000000010101e50                PROVIDE (__DTOR_LIST__, ABSOLUTE (.))
 *(.dtors)
 *(SORT(.dtors.*))
                0x0000000010101e50                PROVIDE (__DTOR_END__, ABSOLUTE (.))
 *(.jcr)
                0x0000000010101e50                . = ALIGN (0x4)

.rodata         0x0000000010101e50      0x568
                0x0000000010101e50                PROVIDE (__ram_rodata_start, ABSOLUTE (.))
                0x0000000010101e50                . = ALIGN (0x4)
 *(.rodata .rodata.* .gnu.linkonce.r.*)
 .rodata.str1.4
                0x0000000010101e50      0x130 obj/default/DMA_Read.o
 .rodata.str1.4
                0x0000000010101f80       0x55 obj/default/VGA_DMA_display.o
                                         0x58 (size before relaxing)
 *fill*         0x0000000010101fd5        0x3 
 .rodata        0x0000000010101fd8       0x60 obj/default/VGA_DMA_display.o
 .rodata.str1.4
                0x0000000010102038      0x1b0 obj/default/msgDMA.o
 .rodata.str1.4
                0x0000000000000000       0x28 /home/pokitoz/Dropbox/DE0_SoC_VGA/sw/nios/application/VGA_Display_Gen1_bsp//libhal_bsp.a(alt_sys_init.o)
 .rodata.str1.4
                0x00000000101021e8      0x1d0 /home/pokitoz/Dropbox/DE0_SoC_VGA/sw/nios/application/VGA_Display_Gen1_bsp//libhal_bsp.a(altera_msgdma.o)
 *(.rodata1)
                0x00000000101023b8                . = ALIGN (0x4)
                0x00000000101023b8                PROVIDE (__ram_rodata_end, ABSOLUTE (.))
                0x0000000010101e50                PROVIDE (__flash_rodata_start, LOADADDR (.rodata))

.rwdata         0x00000000101023b8       0x74 load address 0x000000001010242c
                0x00000000101023b8                PROVIDE (__ram_rwdata_start, ABSOLUTE (.))
                0x00000000101023b8                . = ALIGN (0x4)
 *(.got.plt)
 *(.got)
 *(.data1)
 *(.data .data.* .gnu.linkonce.d.*)
 .data          0x00000000101023b8        0x0 /home/pokitoz/Dropbox/DE0_SoC_VGA/sw/nios/application/VGA_Display_Gen1_bsp//obj/HAL/src/crt0.o
 .data          0x00000000101023b8        0x0 obj/default/DMA_Read.o
 .data          0x00000000101023b8        0x0 obj/default/VGA_DMA_display.o
 .data          0x00000000101023b8        0x0 obj/default/VGA_Display.o
 .data          0x00000000101023b8        0x0 obj/default/msgDMA.o
 .data          0x00000000101023b8        0x0 /home/pokitoz/altera/15.1/nios2eds/bin/gnu/H-x86_64-pc-linux-gnu/bin/../lib/gcc/nios2-elf/4.9.2/libgcc.a(lib2-divmod.o)
 .data          0x00000000101023b8        0x0 /home/pokitoz/altera/15.1/nios2eds/bin/gnu/H-x86_64-pc-linux-gnu/bin/../lib/gcc/nios2-elf/4.9.2/../../../../../H-x86_64-pc-linux-gnu/nios2-elf/lib/libsmallc.a(lib_a-memcpy.o)
 .data          0x00000000101023b8        0x0 /home/pokitoz/Dropbox/DE0_SoC_VGA/sw/nios/application/VGA_Display_Gen1_bsp//libhal_bsp.a(alt_iic.o)
 .data          0x00000000101023b8        0x0 /home/pokitoz/Dropbox/DE0_SoC_VGA/sw/nios/application/VGA_Display_Gen1_bsp//libhal_bsp.a(alt_iic_isr_register.o)
 .data          0x00000000101023b8        0x0 /home/pokitoz/Dropbox/DE0_SoC_VGA/sw/nios/application/VGA_Display_Gen1_bsp//libhal_bsp.a(alt_irq_entry.o)
 .data          0x00000000101023b8        0x0 /home/pokitoz/Dropbox/DE0_SoC_VGA/sw/nios/application/VGA_Display_Gen1_bsp//libhal_bsp.a(alt_irq_handler.o)
 .data          0x00000000101023b8        0x0 /home/pokitoz/Dropbox/DE0_SoC_VGA/sw/nios/application/VGA_Display_Gen1_bsp//libhal_bsp.a(alt_irq_vars.o)
 .data          0x00000000101023b8        0x0 /home/pokitoz/Dropbox/DE0_SoC_VGA/sw/nios/application/VGA_Display_Gen1_bsp//libhal_bsp.a(alt_load.o)
 .data          0x00000000101023b8        0x0 /home/pokitoz/Dropbox/DE0_SoC_VGA/sw/nios/application/VGA_Display_Gen1_bsp//libhal_bsp.a(alt_main.o)
 .data          0x00000000101023b8        0x0 /home/pokitoz/Dropbox/DE0_SoC_VGA/sw/nios/application/VGA_Display_Gen1_bsp//libhal_bsp.a(alt_printf.o)
 .data          0x00000000101023b8        0x0 /home/pokitoz/Dropbox/DE0_SoC_VGA/sw/nios/application/VGA_Display_Gen1_bsp//libhal_bsp.a(alt_putchar.o)
 .data          0x00000000101023b8        0x0 /home/pokitoz/Dropbox/DE0_SoC_VGA/sw/nios/application/VGA_Display_Gen1_bsp//libhal_bsp.a(alt_putstr.o)
 .data          0x00000000101023b8       0x60 /home/pokitoz/Dropbox/DE0_SoC_VGA/sw/nios/application/VGA_Display_Gen1_bsp//libhal_bsp.a(alt_sys_init.o)
 .data          0x0000000010102418        0x0 /home/pokitoz/Dropbox/DE0_SoC_VGA/sw/nios/application/VGA_Display_Gen1_bsp//libhal_bsp.a(altera_avalon_jtag_uart_write.o)
 .data          0x0000000010102418        0x0 /home/pokitoz/Dropbox/DE0_SoC_VGA/sw/nios/application/VGA_Display_Gen1_bsp//libhal_bsp.a(altera_msgdma.o)
 .data          0x0000000010102418        0x0 /home/pokitoz/Dropbox/DE0_SoC_VGA/sw/nios/application/VGA_Display_Gen1_bsp//libhal_bsp.a(alt_busy_sleep.o)
 .data          0x0000000010102418        0x0 /home/pokitoz/Dropbox/DE0_SoC_VGA/sw/nios/application/VGA_Display_Gen1_bsp//libhal_bsp.a(alt_dcache_flush_all.o)
 .data          0x0000000010102418        0x0 /home/pokitoz/Dropbox/DE0_SoC_VGA/sw/nios/application/VGA_Display_Gen1_bsp//libhal_bsp.a(alt_dev_llist_insert.o)
 .data          0x0000000010102418        0x0 /home/pokitoz/Dropbox/DE0_SoC_VGA/sw/nios/application/VGA_Display_Gen1_bsp//libhal_bsp.a(alt_errno.o)
 .data          0x0000000010102418        0x0 /home/pokitoz/Dropbox/DE0_SoC_VGA/sw/nios/application/VGA_Display_Gen1_bsp//libhal_bsp.a(alt_exception_entry.o)
 .data          0x0000000010102418        0x0 /home/pokitoz/Dropbox/DE0_SoC_VGA/sw/nios/application/VGA_Display_Gen1_bsp//libhal_bsp.a(alt_find_dev.o)
 .data          0x0000000010102418        0x0 /home/pokitoz/Dropbox/DE0_SoC_VGA/sw/nios/application/VGA_Display_Gen1_bsp//libhal_bsp.a(alt_icache_flush_all.o)
 .data          0x0000000010102418        0x0 /home/pokitoz/Dropbox/DE0_SoC_VGA/sw/nios/application/VGA_Display_Gen1_bsp//libhal_bsp.a(altera_nios2_qsys_irq.o)
 .data          0x0000000010102418        0x0 /home/pokitoz/Dropbox/DE0_SoC_VGA/sw/nios/application/VGA_Display_Gen1_bsp//libhal_bsp.a(alt_icache_flush.o)
 .data          0x0000000010102418        0x0 /home/pokitoz/altera/15.1/nios2eds/bin/gnu/H-x86_64-pc-linux-gnu/bin/../lib/gcc/nios2-elf/4.9.2/../../../../../H-x86_64-pc-linux-gnu/nios2-elf/lib/libsmallc.a(lib_a-int_errno.o)
 .data          0x0000000010102418        0x0 /home/pokitoz/altera/15.1/nios2eds/bin/gnu/H-x86_64-pc-linux-gnu/bin/../lib/gcc/nios2-elf/4.9.2/../../../../../H-x86_64-pc-linux-gnu/nios2-elf/lib/libsmallc.a(lib_a-memcmp.o)
 .data          0x0000000010102418        0x0 /home/pokitoz/altera/15.1/nios2eds/bin/gnu/H-x86_64-pc-linux-gnu/bin/../lib/gcc/nios2-elf/4.9.2/../../../../../H-x86_64-pc-linux-gnu/nios2-elf/lib/libsmallc.a(lib_a-strlen.o)
                0x000000001010a418                _gp = ABSOLUTE ((. + 0x8000))
                0x000000001010a418                PROVIDE (gp, _gp)
 *(.rwdata .rwdata.*)
 *(.sdata .sdata.* .gnu.linkonce.s.*)
 .sdata         0x0000000010102418        0x4 /home/pokitoz/Dropbox/DE0_SoC_VGA/sw/nios/application/VGA_Display_Gen1_bsp//libhal_bsp.a(alt_irq_vars.o)
                0x0000000010102418                alt_priority_mask
 .sdata         0x000000001010241c        0x4 /home/pokitoz/Dropbox/DE0_SoC_VGA/sw/nios/application/VGA_Display_Gen1_bsp//libhal_bsp.a(alt_sys_init.o)
                0x000000001010241c                jtag_uart_0
 .sdata         0x0000000010102420        0x8 /home/pokitoz/Dropbox/DE0_SoC_VGA/sw/nios/application/VGA_Display_Gen1_bsp//libhal_bsp.a(altera_msgdma.o)
                0x0000000010102420                alt_msgdma_list
 .sdata         0x0000000010102428        0x4 /home/pokitoz/Dropbox/DE0_SoC_VGA/sw/nios/application/VGA_Display_Gen1_bsp//libhal_bsp.a(alt_errno.o)
                0x0000000010102428                alt_errno
 *(.sdata2 .sdata2.* .gnu.linkonce.s2.*)
                0x000000001010242c                . = ALIGN (0x4)
                0x000000001010242c                _edata = ABSOLUTE (.)
                0x000000001010242c                PROVIDE (edata, ABSOLUTE (.))
                0x000000001010242c                PROVIDE (__ram_rwdata_end, ABSOLUTE (.))
                0x000000001010242c                PROVIDE (__flash_rwdata_start, LOADADDR (.rwdata))

.bss            0x00000000101024a0      0x190
                0x00000000101024a0                __bss_start = ABSOLUTE (.)
                0x00000000101024a0                PROVIDE (__sbss_start, ABSOLUTE (.))
                0x00000000101024a0                PROVIDE (___sbss_start, ABSOLUTE (.))
 *(.dynsbss)
 *(.sbss .sbss.* .gnu.linkonce.sb.*)
 .sbss          0x00000000101024a0        0x8 obj/default/VGA_DMA_display.o
                0x00000000101024a0                next_desc
                0x00000000101024a4                vsync
 .sbss          0x00000000101024a8        0x4 obj/default/VGA_DMA_display.o
                0x00000000101024a8                descriptor_number
 .sbss          0x00000000101024ac        0x4 /home/pokitoz/Dropbox/DE0_SoC_VGA/sw/nios/application/VGA_Display_Gen1_bsp//libhal_bsp.a(alt_irq_vars.o)
                0x00000000101024ac                alt_irq_active
 .sbss          0x00000000101024b0        0xc /home/pokitoz/Dropbox/DE0_SoC_VGA/sw/nios/application/VGA_Display_Gen1_bsp//libhal_bsp.a(alt_main.o)
                0x00000000101024b0                alt_envp
                0x00000000101024b4                alt_argv
                0x00000000101024b8                alt_argc
 .sbss          0x00000000101024bc        0x4 /home/pokitoz/altera/15.1/nios2eds/bin/gnu/H-x86_64-pc-linux-gnu/bin/../lib/gcc/nios2-elf/4.9.2/../../../../../H-x86_64-pc-linux-gnu/nios2-elf/lib/libsmallc.a(lib_a-int_errno.o)
                0x00000000101024bc                errno
 *(.sbss2 .sbss2.* .gnu.linkonce.sb2.*)
 *(.scommon)
                0x00000000101024c0                PROVIDE (__sbss_end, ABSOLUTE (.))
                0x00000000101024c0                PROVIDE (___sbss_end, ABSOLUTE (.))
 *(.dynbss)
 *(.bss .bss.* .gnu.linkonce.b.*)
 .bss           0x00000000101024c0        0x0 /home/pokitoz/Dropbox/DE0_SoC_VGA/sw/nios/application/VGA_Display_Gen1_bsp//obj/HAL/src/crt0.o
 .bss           0x00000000101024c0        0x0 obj/default/DMA_Read.o
 .bss           0x00000000101024c0        0x0 obj/default/VGA_DMA_display.o
 .bss           0x00000000101024c0        0x0 obj/default/VGA_Display.o
 .bss           0x00000000101024c0        0x0 obj/default/msgDMA.o
 .bss           0x00000000101024c0        0x0 /home/pokitoz/altera/15.1/nios2eds/bin/gnu/H-x86_64-pc-linux-gnu/bin/../lib/gcc/nios2-elf/4.9.2/libgcc.a(lib2-divmod.o)
 .bss           0x00000000101024c0        0x0 /home/pokitoz/altera/15.1/nios2eds/bin/gnu/H-x86_64-pc-linux-gnu/bin/../lib/gcc/nios2-elf/4.9.2/../../../../../H-x86_64-pc-linux-gnu/nios2-elf/lib/libsmallc.a(lib_a-memcpy.o)
 .bss           0x00000000101024c0        0x0 /home/pokitoz/Dropbox/DE0_SoC_VGA/sw/nios/application/VGA_Display_Gen1_bsp//libhal_bsp.a(alt_iic.o)
 .bss           0x00000000101024c0        0x0 /home/pokitoz/Dropbox/DE0_SoC_VGA/sw/nios/application/VGA_Display_Gen1_bsp//libhal_bsp.a(alt_iic_isr_register.o)
 .bss           0x00000000101024c0        0x0 /home/pokitoz/Dropbox/DE0_SoC_VGA/sw/nios/application/VGA_Display_Gen1_bsp//libhal_bsp.a(alt_irq_entry.o)
 .bss           0x00000000101024c0        0x0 /home/pokitoz/Dropbox/DE0_SoC_VGA/sw/nios/application/VGA_Display_Gen1_bsp//libhal_bsp.a(alt_irq_handler.o)
 .bss           0x00000000101024c0        0x0 /home/pokitoz/Dropbox/DE0_SoC_VGA/sw/nios/application/VGA_Display_Gen1_bsp//libhal_bsp.a(alt_irq_vars.o)
 .bss           0x00000000101024c0        0x0 /home/pokitoz/Dropbox/DE0_SoC_VGA/sw/nios/application/VGA_Display_Gen1_bsp//libhal_bsp.a(alt_load.o)
 .bss           0x00000000101024c0        0x0 /home/pokitoz/Dropbox/DE0_SoC_VGA/sw/nios/application/VGA_Display_Gen1_bsp//libhal_bsp.a(alt_main.o)
 .bss           0x00000000101024c0        0x0 /home/pokitoz/Dropbox/DE0_SoC_VGA/sw/nios/application/VGA_Display_Gen1_bsp//libhal_bsp.a(alt_printf.o)
 .bss           0x00000000101024c0        0x0 /home/pokitoz/Dropbox/DE0_SoC_VGA/sw/nios/application/VGA_Display_Gen1_bsp//libhal_bsp.a(alt_putchar.o)
 .bss           0x00000000101024c0        0x0 /home/pokitoz/Dropbox/DE0_SoC_VGA/sw/nios/application/VGA_Display_Gen1_bsp//libhal_bsp.a(alt_putstr.o)
 .bss           0x00000000101024c0        0x0 /home/pokitoz/Dropbox/DE0_SoC_VGA/sw/nios/application/VGA_Display_Gen1_bsp//libhal_bsp.a(alt_sys_init.o)
 .bss           0x00000000101024c0        0x0 /home/pokitoz/Dropbox/DE0_SoC_VGA/sw/nios/application/VGA_Display_Gen1_bsp//libhal_bsp.a(altera_avalon_jtag_uart_write.o)
 .bss           0x00000000101024c0        0x0 /home/pokitoz/Dropbox/DE0_SoC_VGA/sw/nios/application/VGA_Display_Gen1_bsp//libhal_bsp.a(altera_msgdma.o)
 .bss           0x00000000101024c0        0x0 /home/pokitoz/Dropbox/DE0_SoC_VGA/sw/nios/application/VGA_Display_Gen1_bsp//libhal_bsp.a(alt_busy_sleep.o)
 .bss           0x00000000101024c0        0x0 /home/pokitoz/Dropbox/DE0_SoC_VGA/sw/nios/application/VGA_Display_Gen1_bsp//libhal_bsp.a(alt_dcache_flush_all.o)
 .bss           0x00000000101024c0        0x0 /home/pokitoz/Dropbox/DE0_SoC_VGA/sw/nios/application/VGA_Display_Gen1_bsp//libhal_bsp.a(alt_dev_llist_insert.o)
 .bss           0x00000000101024c0        0x0 /home/pokitoz/Dropbox/DE0_SoC_VGA/sw/nios/application/VGA_Display_Gen1_bsp//libhal_bsp.a(alt_errno.o)
 .bss           0x00000000101024c0        0x0 /home/pokitoz/Dropbox/DE0_SoC_VGA/sw/nios/application/VGA_Display_Gen1_bsp//libhal_bsp.a(alt_exception_entry.o)
 .bss           0x00000000101024c0        0x0 /home/pokitoz/Dropbox/DE0_SoC_VGA/sw/nios/application/VGA_Display_Gen1_bsp//libhal_bsp.a(alt_find_dev.o)
 .bss           0x00000000101024c0        0x0 /home/pokitoz/Dropbox/DE0_SoC_VGA/sw/nios/application/VGA_Display_Gen1_bsp//libhal_bsp.a(alt_icache_flush_all.o)
 .bss           0x00000000101024c0        0x0 /home/pokitoz/Dropbox/DE0_SoC_VGA/sw/nios/application/VGA_Display_Gen1_bsp//libhal_bsp.a(altera_nios2_qsys_irq.o)
 .bss           0x00000000101024c0        0x0 /home/pokitoz/Dropbox/DE0_SoC_VGA/sw/nios/application/VGA_Display_Gen1_bsp//libhal_bsp.a(alt_icache_flush.o)
 .bss           0x00000000101024c0        0x0 /home/pokitoz/altera/15.1/nios2eds/bin/gnu/H-x86_64-pc-linux-gnu/bin/../lib/gcc/nios2-elf/4.9.2/../../../../../H-x86_64-pc-linux-gnu/nios2-elf/lib/libsmallc.a(lib_a-int_errno.o)
 .bss           0x00000000101024c0        0x0 /home/pokitoz/altera/15.1/nios2eds/bin/gnu/H-x86_64-pc-linux-gnu/bin/../lib/gcc/nios2-elf/4.9.2/../../../../../H-x86_64-pc-linux-gnu/nios2-elf/lib/libsmallc.a(lib_a-memcmp.o)
 .bss           0x00000000101024c0        0x0 /home/pokitoz/altera/15.1/nios2eds/bin/gnu/H-x86_64-pc-linux-gnu/bin/../lib/gcc/nios2-elf/4.9.2/../../../../../H-x86_64-pc-linux-gnu/nios2-elf/lib/libsmallc.a(lib_a-strlen.o)
 *(COMMON)
 COMMON         0x00000000101024c0       0x70 obj/default/VGA_DMA_display.o
                0x00000000101024c0                msgdma_dev
                0x0000000010102520                msgdma_desc
 COMMON         0x0000000010102530      0x100 /home/pokitoz/Dropbox/DE0_SoC_VGA/sw/nios/application/VGA_Display_Gen1_bsp//libhal_bsp.a(alt_irq_handler.o)
                0x0000000010102530                alt_irq
                0x0000000010102630                . = ALIGN (0x4)
                0x0000000010102630                __bss_end = ABSOLUTE (.)

.onchip_memory2_0
                0x0000000010102630        0x0
                0x0000000010102630                PROVIDE (_alt_partition_onchip_memory2_0_start, ABSOLUTE (.))
 *(.onchip_memory2_0 .onchip_memory2_0. onchip_memory2_0.*)
                0x0000000010102630                . = ALIGN (0x4)
                0x0000000010102630                PROVIDE (_alt_partition_onchip_memory2_0_end, ABSOLUTE (.))
                0x0000000010102630                _end = ABSOLUTE (.)
                0x0000000010102630                end = ABSOLUTE (.)
                0x0000000010102630                __alt_stack_base = ABSOLUTE (.)
                0x0000000010102630                PROVIDE (_alt_partition_onchip_memory2_0_load_addr, LOADADDR (.onchip_memory2_0))

.stab
 *(.stab)

.stabstr
 *(.stabstr)

.stab.excl
 *(.stab.excl)

.stab.exclstr
 *(.stab.exclstr)

.stab.index
 *(.stab.index)

.stab.indexstr
 *(.stab.indexstr)

.comment        0x0000000000000000       0x23
 *(.comment)
 .comment       0x0000000000000000       0x23 obj/default/DMA_Read.o
                                         0x24 (size before relaxing)
 .comment       0x0000000000000000       0x24 obj/default/VGA_DMA_display.o
 .comment       0x0000000000000000       0x24 obj/default/VGA_Display.o
 .comment       0x0000000000000000       0x24 obj/default/msgDMA.o
 .comment       0x0000000000000000       0x24 /home/pokitoz/altera/15.1/nios2eds/bin/gnu/H-x86_64-pc-linux-gnu/bin/../lib/gcc/nios2-elf/4.9.2/libgcc.a(lib2-divmod.o)
 .comment       0x0000000000000000       0x24 /home/pokitoz/altera/15.1/nios2eds/bin/gnu/H-x86_64-pc-linux-gnu/bin/../lib/gcc/nios2-elf/4.9.2/../../../../../H-x86_64-pc-linux-gnu/nios2-elf/lib/libsmallc.a(lib_a-memcpy.o)
 .comment       0x0000000000000000       0x24 /home/pokitoz/Dropbox/DE0_SoC_VGA/sw/nios/application/VGA_Display_Gen1_bsp//libhal_bsp.a(alt_iic.o)
 .comment       0x0000000000000000       0x24 /home/pokitoz/Dropbox/DE0_SoC_VGA/sw/nios/application/VGA_Display_Gen1_bsp//libhal_bsp.a(alt_iic_isr_register.o)
 .comment       0x0000000000000000       0x24 /home/pokitoz/Dropbox/DE0_SoC_VGA/sw/nios/application/VGA_Display_Gen1_bsp//libhal_bsp.a(alt_irq_handler.o)
 .comment       0x0000000000000000       0x24 /home/pokitoz/Dropbox/DE0_SoC_VGA/sw/nios/application/VGA_Display_Gen1_bsp//libhal_bsp.a(alt_irq_vars.o)
 .comment       0x0000000000000000       0x24 /home/pokitoz/Dropbox/DE0_SoC_VGA/sw/nios/application/VGA_Display_Gen1_bsp//libhal_bsp.a(alt_load.o)
 .comment       0x0000000000000000       0x24 /home/pokitoz/Dropbox/DE0_SoC_VGA/sw/nios/application/VGA_Display_Gen1_bsp//libhal_bsp.a(alt_main.o)
 .comment       0x0000000000000000       0x24 /home/pokitoz/Dropbox/DE0_SoC_VGA/sw/nios/application/VGA_Display_Gen1_bsp//libhal_bsp.a(alt_printf.o)
 .comment       0x0000000000000000       0x24 /home/pokitoz/Dropbox/DE0_SoC_VGA/sw/nios/application/VGA_Display_Gen1_bsp//libhal_bsp.a(alt_putchar.o)
 .comment       0x0000000000000000       0x24 /home/pokitoz/Dropbox/DE0_SoC_VGA/sw/nios/application/VGA_Display_Gen1_bsp//libhal_bsp.a(alt_putstr.o)
 .comment       0x0000000000000000       0x24 /home/pokitoz/Dropbox/DE0_SoC_VGA/sw/nios/application/VGA_Display_Gen1_bsp//libhal_bsp.a(alt_sys_init.o)
 .comment       0x0000000000000000       0x24 /home/pokitoz/Dropbox/DE0_SoC_VGA/sw/nios/application/VGA_Display_Gen1_bsp//libhal_bsp.a(altera_avalon_jtag_uart_write.o)
 .comment       0x0000000000000000       0x24 /home/pokitoz/Dropbox/DE0_SoC_VGA/sw/nios/application/VGA_Display_Gen1_bsp//libhal_bsp.a(altera_msgdma.o)
 .comment       0x0000000000000000       0x24 /home/pokitoz/Dropbox/DE0_SoC_VGA/sw/nios/application/VGA_Display_Gen1_bsp//libhal_bsp.a(alt_busy_sleep.o)
 .comment       0x0000000000000000       0x24 /home/pokitoz/Dropbox/DE0_SoC_VGA/sw/nios/application/VGA_Display_Gen1_bsp//libhal_bsp.a(alt_dcache_flush_all.o)
 .comment       0x0000000000000000       0x24 /home/pokitoz/Dropbox/DE0_SoC_VGA/sw/nios/application/VGA_Display_Gen1_bsp//libhal_bsp.a(alt_dev_llist_insert.o)
 .comment       0x0000000000000000       0x24 /home/pokitoz/Dropbox/DE0_SoC_VGA/sw/nios/application/VGA_Display_Gen1_bsp//libhal_bsp.a(alt_errno.o)
 .comment       0x0000000000000000       0x24 /home/pokitoz/Dropbox/DE0_SoC_VGA/sw/nios/application/VGA_Display_Gen1_bsp//libhal_bsp.a(alt_find_dev.o)
 .comment       0x0000000000000000       0x24 /home/pokitoz/Dropbox/DE0_SoC_VGA/sw/nios/application/VGA_Display_Gen1_bsp//libhal_bsp.a(alt_icache_flush_all.o)
 .comment       0x0000000000000000       0x24 /home/pokitoz/Dropbox/DE0_SoC_VGA/sw/nios/application/VGA_Display_Gen1_bsp//libhal_bsp.a(altera_nios2_qsys_irq.o)
 .comment       0x0000000000000000       0x24 /home/pokitoz/Dropbox/DE0_SoC_VGA/sw/nios/application/VGA_Display_Gen1_bsp//libhal_bsp.a(alt_icache_flush.o)
 .comment       0x0000000000000000       0x24 /home/pokitoz/altera/15.1/nios2eds/bin/gnu/H-x86_64-pc-linux-gnu/bin/../lib/gcc/nios2-elf/4.9.2/../../../../../H-x86_64-pc-linux-gnu/nios2-elf/lib/libsmallc.a(lib_a-int_errno.o)
 .comment       0x0000000000000000       0x24 /home/pokitoz/altera/15.1/nios2eds/bin/gnu/H-x86_64-pc-linux-gnu/bin/../lib/gcc/nios2-elf/4.9.2/../../../../../H-x86_64-pc-linux-gnu/nios2-elf/lib/libsmallc.a(lib_a-memcmp.o)
 .comment       0x0000000000000000       0x24 /home/pokitoz/altera/15.1/nios2eds/bin/gnu/H-x86_64-pc-linux-gnu/bin/../lib/gcc/nios2-elf/4.9.2/../../../../../H-x86_64-pc-linux-gnu/nios2-elf/lib/libsmallc.a(lib_a-strlen.o)

.debug
 *(.debug)

.line
 *(.line)

.debug_srcinfo
 *(.debug_srcinfo)

.debug_sfnames
 *(.debug_sfnames)

.debug_aranges  0x0000000000000000      0x420
 *(.debug_aranges)
 .debug_aranges
                0x0000000000000000       0x28 /home/pokitoz/Dropbox/DE0_SoC_VGA/sw/nios/application/VGA_Display_Gen1_bsp//obj/HAL/src/crt0.o
 .debug_aranges
                0x0000000000000028       0x20 obj/default/DMA_Read.o
 .debug_aranges
                0x0000000000000048       0x28 obj/default/VGA_DMA_display.o
 .debug_aranges
                0x0000000000000070       0x20 obj/default/VGA_Display.o
 .debug_aranges
                0x0000000000000090       0x20 obj/default/msgDMA.o
 .debug_aranges
                0x00000000000000b0       0x20 /home/pokitoz/altera/15.1/nios2eds/bin/gnu/H-x86_64-pc-linux-gnu/bin/../lib/gcc/nios2-elf/4.9.2/libgcc.a(lib2-divmod.o)
 .debug_aranges
                0x00000000000000d0       0x20 /home/pokitoz/altera/15.1/nios2eds/bin/gnu/H-x86_64-pc-linux-gnu/bin/../lib/gcc/nios2-elf/4.9.2/../../../../../H-x86_64-pc-linux-gnu/nios2-elf/lib/libsmallc.a(lib_a-memcpy.o)
 .debug_aranges
                0x00000000000000f0       0x20 /home/pokitoz/Dropbox/DE0_SoC_VGA/sw/nios/application/VGA_Display_Gen1_bsp//libhal_bsp.a(alt_iic.o)
 .debug_aranges
                0x0000000000000110       0x20 /home/pokitoz/Dropbox/DE0_SoC_VGA/sw/nios/application/VGA_Display_Gen1_bsp//libhal_bsp.a(alt_iic_isr_register.o)
 .debug_aranges
                0x0000000000000130       0x30 /home/pokitoz/Dropbox/DE0_SoC_VGA/sw/nios/application/VGA_Display_Gen1_bsp//libhal_bsp.a(alt_irq_entry.o)
 .debug_aranges
                0x0000000000000160       0x20 /home/pokitoz/Dropbox/DE0_SoC_VGA/sw/nios/application/VGA_Display_Gen1_bsp//libhal_bsp.a(alt_irq_handler.o)
 .debug_aranges
                0x0000000000000180       0x18 /home/pokitoz/Dropbox/DE0_SoC_VGA/sw/nios/application/VGA_Display_Gen1_bsp//libhal_bsp.a(alt_irq_vars.o)
 .debug_aranges
                0x0000000000000198       0x20 /home/pokitoz/Dropbox/DE0_SoC_VGA/sw/nios/application/VGA_Display_Gen1_bsp//libhal_bsp.a(alt_load.o)
 .debug_aranges
                0x00000000000001b8       0x20 /home/pokitoz/Dropbox/DE0_SoC_VGA/sw/nios/application/VGA_Display_Gen1_bsp//libhal_bsp.a(alt_main.o)
 .debug_aranges
                0x00000000000001d8       0x20 /home/pokitoz/Dropbox/DE0_SoC_VGA/sw/nios/application/VGA_Display_Gen1_bsp//libhal_bsp.a(alt_printf.o)
 .debug_aranges
                0x00000000000001f8       0x20 /home/pokitoz/Dropbox/DE0_SoC_VGA/sw/nios/application/VGA_Display_Gen1_bsp//libhal_bsp.a(alt_putchar.o)
 .debug_aranges
                0x0000000000000218       0x20 /home/pokitoz/Dropbox/DE0_SoC_VGA/sw/nios/application/VGA_Display_Gen1_bsp//libhal_bsp.a(alt_putstr.o)
 .debug_aranges
                0x0000000000000238       0x20 /home/pokitoz/Dropbox/DE0_SoC_VGA/sw/nios/application/VGA_Display_Gen1_bsp//libhal_bsp.a(alt_sys_init.o)
 .debug_aranges
                0x0000000000000258       0x20 /home/pokitoz/Dropbox/DE0_SoC_VGA/sw/nios/application/VGA_Display_Gen1_bsp//libhal_bsp.a(altera_avalon_jtag_uart_write.o)
 .debug_aranges
                0x0000000000000278       0x20 /home/pokitoz/Dropbox/DE0_SoC_VGA/sw/nios/application/VGA_Display_Gen1_bsp//libhal_bsp.a(altera_msgdma.o)
 .debug_aranges
                0x0000000000000298       0x20 /home/pokitoz/Dropbox/DE0_SoC_VGA/sw/nios/application/VGA_Display_Gen1_bsp//libhal_bsp.a(alt_busy_sleep.o)
 .debug_aranges
                0x00000000000002b8       0x20 /home/pokitoz/Dropbox/DE0_SoC_VGA/sw/nios/application/VGA_Display_Gen1_bsp//libhal_bsp.a(alt_dcache_flush_all.o)
 .debug_aranges
                0x00000000000002d8       0x20 /home/pokitoz/Dropbox/DE0_SoC_VGA/sw/nios/application/VGA_Display_Gen1_bsp//libhal_bsp.a(alt_dev_llist_insert.o)
 .debug_aranges
                0x00000000000002f8       0x18 /home/pokitoz/Dropbox/DE0_SoC_VGA/sw/nios/application/VGA_Display_Gen1_bsp//libhal_bsp.a(alt_errno.o)
 .debug_aranges
                0x0000000000000310       0x38 /home/pokitoz/Dropbox/DE0_SoC_VGA/sw/nios/application/VGA_Display_Gen1_bsp//libhal_bsp.a(alt_exception_entry.o)
 .debug_aranges
                0x0000000000000348       0x20 /home/pokitoz/Dropbox/DE0_SoC_VGA/sw/nios/application/VGA_Display_Gen1_bsp//libhal_bsp.a(alt_find_dev.o)
 .debug_aranges
                0x0000000000000368       0x20 /home/pokitoz/Dropbox/DE0_SoC_VGA/sw/nios/application/VGA_Display_Gen1_bsp//libhal_bsp.a(alt_icache_flush_all.o)
 .debug_aranges
                0x0000000000000388       0x20 /home/pokitoz/Dropbox/DE0_SoC_VGA/sw/nios/application/VGA_Display_Gen1_bsp//libhal_bsp.a(altera_nios2_qsys_irq.o)
 .debug_aranges
                0x00000000000003a8       0x20 /home/pokitoz/Dropbox/DE0_SoC_VGA/sw/nios/application/VGA_Display_Gen1_bsp//libhal_bsp.a(alt_icache_flush.o)
 .debug_aranges
                0x00000000000003c8       0x18 /home/pokitoz/altera/15.1/nios2eds/bin/gnu/H-x86_64-pc-linux-gnu/bin/../lib/gcc/nios2-elf/4.9.2/../../../../../H-x86_64-pc-linux-gnu/nios2-elf/lib/libsmallc.a(lib_a-int_errno.o)
 .debug_aranges
                0x00000000000003e0       0x20 /home/pokitoz/altera/15.1/nios2eds/bin/gnu/H-x86_64-pc-linux-gnu/bin/../lib/gcc/nios2-elf/4.9.2/../../../../../H-x86_64-pc-linux-gnu/nios2-elf/lib/libsmallc.a(lib_a-memcmp.o)
 .debug_aranges
                0x0000000000000400       0x20 /home/pokitoz/altera/15.1/nios2eds/bin/gnu/H-x86_64-pc-linux-gnu/bin/../lib/gcc/nios2-elf/4.9.2/../../../../../H-x86_64-pc-linux-gnu/nios2-elf/lib/libsmallc.a(lib_a-strlen.o)

.debug_pubnames
 *(.debug_pubnames)

.debug_info     0x0000000000000000     0x55c3
 *(.debug_info .gnu.linkonce.wi.*)
 .debug_info    0x0000000000000000       0x7f /home/pokitoz/Dropbox/DE0_SoC_VGA/sw/nios/application/VGA_Display_Gen1_bsp//obj/HAL/src/crt0.o
 .debug_info    0x000000000000007f      0x2b8 obj/default/DMA_Read.o
 .debug_info    0x0000000000000337      0x606 obj/default/VGA_DMA_display.o
 .debug_info    0x000000000000093d      0x240 obj/default/VGA_Display.o
 .debug_info    0x0000000000000b7d      0x723 obj/default/msgDMA.o
 .debug_info    0x00000000000012a0      0x234 /home/pokitoz/altera/15.1/nios2eds/bin/gnu/H-x86_64-pc-linux-gnu/bin/../lib/gcc/nios2-elf/4.9.2/libgcc.a(lib2-divmod.o)
 .debug_info    0x00000000000014d4      0x106 /home/pokitoz/altera/15.1/nios2eds/bin/gnu/H-x86_64-pc-linux-gnu/bin/../lib/gcc/nios2-elf/4.9.2/../../../../../H-x86_64-pc-linux-gnu/nios2-elf/lib/libsmallc.a(lib_a-memcpy.o)
 .debug_info    0x00000000000015da      0x39d /home/pokitoz/Dropbox/DE0_SoC_VGA/sw/nios/application/VGA_Display_Gen1_bsp//libhal_bsp.a(alt_iic.o)
 .debug_info    0x0000000000001977      0x249 /home/pokitoz/Dropbox/DE0_SoC_VGA/sw/nios/application/VGA_Display_Gen1_bsp//libhal_bsp.a(alt_iic_isr_register.o)
 .debug_info    0x0000000000001bc0       0x88 /home/pokitoz/Dropbox/DE0_SoC_VGA/sw/nios/application/VGA_Display_Gen1_bsp//libhal_bsp.a(alt_irq_entry.o)
 .debug_info    0x0000000000001c48      0x185 /home/pokitoz/Dropbox/DE0_SoC_VGA/sw/nios/application/VGA_Display_Gen1_bsp//libhal_bsp.a(alt_irq_handler.o)
 .debug_info    0x0000000000001dcd       0x88 /home/pokitoz/Dropbox/DE0_SoC_VGA/sw/nios/application/VGA_Display_Gen1_bsp//libhal_bsp.a(alt_irq_vars.o)
 .debug_info    0x0000000000001e55      0x1ba /home/pokitoz/Dropbox/DE0_SoC_VGA/sw/nios/application/VGA_Display_Gen1_bsp//libhal_bsp.a(alt_load.o)
 .debug_info    0x000000000000200f      0x17b /home/pokitoz/Dropbox/DE0_SoC_VGA/sw/nios/application/VGA_Display_Gen1_bsp//libhal_bsp.a(alt_main.o)
 .debug_info    0x000000000000218a      0x153 /home/pokitoz/Dropbox/DE0_SoC_VGA/sw/nios/application/VGA_Display_Gen1_bsp//libhal_bsp.a(alt_printf.o)
 .debug_info    0x00000000000022dd      0x138 /home/pokitoz/Dropbox/DE0_SoC_VGA/sw/nios/application/VGA_Display_Gen1_bsp//libhal_bsp.a(alt_putchar.o)
 .debug_info    0x0000000000002415      0x15d /home/pokitoz/Dropbox/DE0_SoC_VGA/sw/nios/application/VGA_Display_Gen1_bsp//libhal_bsp.a(alt_putstr.o)
 .debug_info    0x0000000000002572      0x35a /home/pokitoz/Dropbox/DE0_SoC_VGA/sw/nios/application/VGA_Display_Gen1_bsp//libhal_bsp.a(alt_sys_init.o)
 .debug_info    0x00000000000028cc      0x190 /home/pokitoz/Dropbox/DE0_SoC_VGA/sw/nios/application/VGA_Display_Gen1_bsp//libhal_bsp.a(altera_avalon_jtag_uart_write.o)
 .debug_info    0x0000000000002a5c     0x1f73 /home/pokitoz/Dropbox/DE0_SoC_VGA/sw/nios/application/VGA_Display_Gen1_bsp//libhal_bsp.a(altera_msgdma.o)
 .debug_info    0x00000000000049cf       0xd1 /home/pokitoz/Dropbox/DE0_SoC_VGA/sw/nios/application/VGA_Display_Gen1_bsp//libhal_bsp.a(alt_busy_sleep.o)
 .debug_info    0x0000000000004aa0       0x9f /home/pokitoz/Dropbox/DE0_SoC_VGA/sw/nios/application/VGA_Display_Gen1_bsp//libhal_bsp.a(alt_dcache_flush_all.o)
 .debug_info    0x0000000000004b3f      0x1a8 /home/pokitoz/Dropbox/DE0_SoC_VGA/sw/nios/application/VGA_Display_Gen1_bsp//libhal_bsp.a(alt_dev_llist_insert.o)
 .debug_info    0x0000000000004ce7       0x9f /home/pokitoz/Dropbox/DE0_SoC_VGA/sw/nios/application/VGA_Display_Gen1_bsp//libhal_bsp.a(alt_errno.o)
 .debug_info    0x0000000000004d86       0x8e /home/pokitoz/Dropbox/DE0_SoC_VGA/sw/nios/application/VGA_Display_Gen1_bsp//libhal_bsp.a(alt_exception_entry.o)
 .debug_info    0x0000000000004e14      0x356 /home/pokitoz/Dropbox/DE0_SoC_VGA/sw/nios/application/VGA_Display_Gen1_bsp//libhal_bsp.a(alt_find_dev.o)
 .debug_info    0x000000000000516a       0xc5 /home/pokitoz/Dropbox/DE0_SoC_VGA/sw/nios/application/VGA_Display_Gen1_bsp//libhal_bsp.a(alt_icache_flush_all.o)
 .debug_info    0x000000000000522f       0x8b /home/pokitoz/Dropbox/DE0_SoC_VGA/sw/nios/application/VGA_Display_Gen1_bsp//libhal_bsp.a(altera_nios2_qsys_irq.o)
 .debug_info    0x00000000000052ba       0xd7 /home/pokitoz/Dropbox/DE0_SoC_VGA/sw/nios/application/VGA_Display_Gen1_bsp//libhal_bsp.a(alt_icache_flush.o)
 .debug_info    0x0000000000005391       0x83 /home/pokitoz/altera/15.1/nios2eds/bin/gnu/H-x86_64-pc-linux-gnu/bin/../lib/gcc/nios2-elf/4.9.2/../../../../../H-x86_64-pc-linux-gnu/nios2-elf/lib/libsmallc.a(lib_a-int_errno.o)
 .debug_info    0x0000000000005414       0xed /home/pokitoz/altera/15.1/nios2eds/bin/gnu/H-x86_64-pc-linux-gnu/bin/../lib/gcc/nios2-elf/4.9.2/../../../../../H-x86_64-pc-linux-gnu/nios2-elf/lib/libsmallc.a(lib_a-memcmp.o)
 .debug_info    0x0000000000005501       0xc2 /home/pokitoz/altera/15.1/nios2eds/bin/gnu/H-x86_64-pc-linux-gnu/bin/../lib/gcc/nios2-elf/4.9.2/../../../../../H-x86_64-pc-linux-gnu/nios2-elf/lib/libsmallc.a(lib_a-strlen.o)

.debug_abbrev   0x0000000000000000     0x1c2e
 *(.debug_abbrev)
 .debug_abbrev  0x0000000000000000       0x12 /home/pokitoz/Dropbox/DE0_SoC_VGA/sw/nios/application/VGA_Display_Gen1_bsp//obj/HAL/src/crt0.o
 .debug_abbrev  0x0000000000000012       0xc9 obj/default/DMA_Read.o
 .debug_abbrev  0x00000000000000db      0x1df obj/default/VGA_DMA_display.o
 .debug_abbrev  0x00000000000002ba       0xea obj/default/VGA_Display.o
 .debug_abbrev  0x00000000000003a4      0x181 obj/default/msgDMA.o
 .debug_abbrev  0x0000000000000525       0xd9 /home/pokitoz/altera/15.1/nios2eds/bin/gnu/H-x86_64-pc-linux-gnu/bin/../lib/gcc/nios2-elf/4.9.2/libgcc.a(lib2-divmod.o)
 .debug_abbrev  0x00000000000005fe       0xa4 /home/pokitoz/altera/15.1/nios2eds/bin/gnu/H-x86_64-pc-linux-gnu/bin/../lib/gcc/nios2-elf/4.9.2/../../../../../H-x86_64-pc-linux-gnu/nios2-elf/lib/libsmallc.a(lib_a-memcpy.o)
 .debug_abbrev  0x00000000000006a2      0x17d /home/pokitoz/Dropbox/DE0_SoC_VGA/sw/nios/application/VGA_Display_Gen1_bsp//libhal_bsp.a(alt_iic.o)
 .debug_abbrev  0x000000000000081f      0x1a6 /home/pokitoz/Dropbox/DE0_SoC_VGA/sw/nios/application/VGA_Display_Gen1_bsp//libhal_bsp.a(alt_iic_isr_register.o)
 .debug_abbrev  0x00000000000009c5       0x12 /home/pokitoz/Dropbox/DE0_SoC_VGA/sw/nios/application/VGA_Display_Gen1_bsp//libhal_bsp.a(alt_irq_entry.o)
 .debug_abbrev  0x00000000000009d7      0x122 /home/pokitoz/Dropbox/DE0_SoC_VGA/sw/nios/application/VGA_Display_Gen1_bsp//libhal_bsp.a(alt_irq_handler.o)
 .debug_abbrev  0x0000000000000af9       0x40 /home/pokitoz/Dropbox/DE0_SoC_VGA/sw/nios/application/VGA_Display_Gen1_bsp//libhal_bsp.a(alt_irq_vars.o)
 .debug_abbrev  0x0000000000000b39       0xd8 /home/pokitoz/Dropbox/DE0_SoC_VGA/sw/nios/application/VGA_Display_Gen1_bsp//libhal_bsp.a(alt_load.o)
 .debug_abbrev  0x0000000000000c11      0x120 /home/pokitoz/Dropbox/DE0_SoC_VGA/sw/nios/application/VGA_Display_Gen1_bsp//libhal_bsp.a(alt_main.o)
 .debug_abbrev  0x0000000000000d31       0xde /home/pokitoz/Dropbox/DE0_SoC_VGA/sw/nios/application/VGA_Display_Gen1_bsp//libhal_bsp.a(alt_printf.o)
 .debug_abbrev  0x0000000000000e0f       0xd4 /home/pokitoz/Dropbox/DE0_SoC_VGA/sw/nios/application/VGA_Display_Gen1_bsp//libhal_bsp.a(alt_putchar.o)
 .debug_abbrev  0x0000000000000ee3       0xe2 /home/pokitoz/Dropbox/DE0_SoC_VGA/sw/nios/application/VGA_Display_Gen1_bsp//libhal_bsp.a(alt_putstr.o)
 .debug_abbrev  0x0000000000000fc5      0x149 /home/pokitoz/Dropbox/DE0_SoC_VGA/sw/nios/application/VGA_Display_Gen1_bsp//libhal_bsp.a(alt_sys_init.o)
 .debug_abbrev  0x000000000000110e       0xd5 /home/pokitoz/Dropbox/DE0_SoC_VGA/sw/nios/application/VGA_Display_Gen1_bsp//libhal_bsp.a(altera_avalon_jtag_uart_write.o)
 .debug_abbrev  0x00000000000011e3      0x412 /home/pokitoz/Dropbox/DE0_SoC_VGA/sw/nios/application/VGA_Display_Gen1_bsp//libhal_bsp.a(altera_msgdma.o)
 .debug_abbrev  0x00000000000015f5       0x8d /home/pokitoz/Dropbox/DE0_SoC_VGA/sw/nios/application/VGA_Display_Gen1_bsp//libhal_bsp.a(alt_busy_sleep.o)
 .debug_abbrev  0x0000000000001682       0x5a /home/pokitoz/Dropbox/DE0_SoC_VGA/sw/nios/application/VGA_Display_Gen1_bsp//libhal_bsp.a(alt_dcache_flush_all.o)
 .debug_abbrev  0x00000000000016dc      0x11c /home/pokitoz/Dropbox/DE0_SoC_VGA/sw/nios/application/VGA_Display_Gen1_bsp//libhal_bsp.a(alt_dev_llist_insert.o)
 .debug_abbrev  0x00000000000017f8       0x5a /home/pokitoz/Dropbox/DE0_SoC_VGA/sw/nios/application/VGA_Display_Gen1_bsp//libhal_bsp.a(alt_errno.o)
 .debug_abbrev  0x0000000000001852       0x12 /home/pokitoz/Dropbox/DE0_SoC_VGA/sw/nios/application/VGA_Display_Gen1_bsp//libhal_bsp.a(alt_exception_entry.o)
 .debug_abbrev  0x0000000000001864      0x12e /home/pokitoz/Dropbox/DE0_SoC_VGA/sw/nios/application/VGA_Display_Gen1_bsp//libhal_bsp.a(alt_find_dev.o)
 .debug_abbrev  0x0000000000001992       0x8a /home/pokitoz/Dropbox/DE0_SoC_VGA/sw/nios/application/VGA_Display_Gen1_bsp//libhal_bsp.a(alt_icache_flush_all.o)
 .debug_abbrev  0x0000000000001a1c       0x42 /home/pokitoz/Dropbox/DE0_SoC_VGA/sw/nios/application/VGA_Display_Gen1_bsp//libhal_bsp.a(altera_nios2_qsys_irq.o)
 .debug_abbrev  0x0000000000001a5e       0x9b /home/pokitoz/Dropbox/DE0_SoC_VGA/sw/nios/application/VGA_Display_Gen1_bsp//libhal_bsp.a(alt_icache_flush.o)
 .debug_abbrev  0x0000000000001af9       0x37 /home/pokitoz/altera/15.1/nios2eds/bin/gnu/H-x86_64-pc-linux-gnu/bin/../lib/gcc/nios2-elf/4.9.2/../../../../../H-x86_64-pc-linux-gnu/nios2-elf/lib/libsmallc.a(lib_a-int_errno.o)
 .debug_abbrev  0x0000000000001b30       0x7f /home/pokitoz/altera/15.1/nios2eds/bin/gnu/H-x86_64-pc-linux-gnu/bin/../lib/gcc/nios2-elf/4.9.2/../../../../../H-x86_64-pc-linux-gnu/nios2-elf/lib/libsmallc.a(lib_a-memcmp.o)
 .debug_abbrev  0x0000000000001baf       0x7f /home/pokitoz/altera/15.1/nios2eds/bin/gnu/H-x86_64-pc-linux-gnu/bin/../lib/gcc/nios2-elf/4.9.2/../../../../../H-x86_64-pc-linux-gnu/nios2-elf/lib/libsmallc.a(lib_a-strlen.o)

.debug_line     0x0000000000000000     0x21ac
 *(.debug_line)
 .debug_line    0x0000000000000000       0x72 /home/pokitoz/Dropbox/DE0_SoC_VGA/sw/nios/application/VGA_Display_Gen1_bsp//obj/HAL/src/crt0.o
 .debug_line    0x0000000000000072      0x127 obj/default/DMA_Read.o
 .debug_line    0x0000000000000199      0x206 obj/default/VGA_DMA_display.o
 .debug_line    0x000000000000039f      0x113 obj/default/VGA_Display.o
 .debug_line    0x00000000000004b2      0x28c obj/default/msgDMA.o
 .debug_line    0x000000000000073e       0xc4 /home/pokitoz/altera/15.1/nios2eds/bin/gnu/H-x86_64-pc-linux-gnu/bin/../lib/gcc/nios2-elf/4.9.2/libgcc.a(lib2-divmod.o)
 .debug_line    0x0000000000000802      0x15b /home/pokitoz/altera/15.1/nios2eds/bin/gnu/H-x86_64-pc-linux-gnu/bin/../lib/gcc/nios2-elf/4.9.2/../../../../../H-x86_64-pc-linux-gnu/nios2-elf/lib/libsmallc.a(lib_a-memcpy.o)
 .debug_line    0x000000000000095d       0xf1 /home/pokitoz/Dropbox/DE0_SoC_VGA/sw/nios/application/VGA_Display_Gen1_bsp//libhal_bsp.a(alt_iic.o)
 .debug_line    0x0000000000000a4e       0xd6 /home/pokitoz/Dropbox/DE0_SoC_VGA/sw/nios/application/VGA_Display_Gen1_bsp//libhal_bsp.a(alt_iic_isr_register.o)
 .debug_line    0x0000000000000b24       0x6b /home/pokitoz/Dropbox/DE0_SoC_VGA/sw/nios/application/VGA_Display_Gen1_bsp//libhal_bsp.a(alt_irq_entry.o)
 .debug_line    0x0000000000000b8f       0xa5 /home/pokitoz/Dropbox/DE0_SoC_VGA/sw/nios/application/VGA_Display_Gen1_bsp//libhal_bsp.a(alt_irq_handler.o)
 .debug_line    0x0000000000000c34       0x50 /home/pokitoz/Dropbox/DE0_SoC_VGA/sw/nios/application/VGA_Display_Gen1_bsp//libhal_bsp.a(alt_irq_vars.o)
 .debug_line    0x0000000000000c84       0xa6 /home/pokitoz/Dropbox/DE0_SoC_VGA/sw/nios/application/VGA_Display_Gen1_bsp//libhal_bsp.a(alt_load.o)
 .debug_line    0x0000000000000d2a       0xbd /home/pokitoz/Dropbox/DE0_SoC_VGA/sw/nios/application/VGA_Display_Gen1_bsp//libhal_bsp.a(alt_main.o)
 .debug_line    0x0000000000000de7      0x118 /home/pokitoz/Dropbox/DE0_SoC_VGA/sw/nios/application/VGA_Display_Gen1_bsp//libhal_bsp.a(alt_printf.o)
 .debug_line    0x0000000000000eff       0x55 /home/pokitoz/Dropbox/DE0_SoC_VGA/sw/nios/application/VGA_Display_Gen1_bsp//libhal_bsp.a(alt_putchar.o)
 .debug_line    0x0000000000000f54      0x115 /home/pokitoz/Dropbox/DE0_SoC_VGA/sw/nios/application/VGA_Display_Gen1_bsp//libhal_bsp.a(alt_putstr.o)
 .debug_line    0x0000000000001069      0x117 /home/pokitoz/Dropbox/DE0_SoC_VGA/sw/nios/application/VGA_Display_Gen1_bsp//libhal_bsp.a(alt_sys_init.o)
 .debug_line    0x0000000000001180       0xf0 /home/pokitoz/Dropbox/DE0_SoC_VGA/sw/nios/application/VGA_Display_Gen1_bsp//libhal_bsp.a(altera_avalon_jtag_uart_write.o)
 .debug_line    0x0000000000001270      0x66c /home/pokitoz/Dropbox/DE0_SoC_VGA/sw/nios/application/VGA_Display_Gen1_bsp//libhal_bsp.a(altera_msgdma.o)
 .debug_line    0x00000000000018dc       0xc0 /home/pokitoz/Dropbox/DE0_SoC_VGA/sw/nios/application/VGA_Display_Gen1_bsp//libhal_bsp.a(alt_busy_sleep.o)
 .debug_line    0x000000000000199c       0x5a /home/pokitoz/Dropbox/DE0_SoC_VGA/sw/nios/application/VGA_Display_Gen1_bsp//libhal_bsp.a(alt_dcache_flush_all.o)
 .debug_line    0x00000000000019f6       0xd8 /home/pokitoz/Dropbox/DE0_SoC_VGA/sw/nios/application/VGA_Display_Gen1_bsp//libhal_bsp.a(alt_dev_llist_insert.o)
 .debug_line    0x0000000000001ace       0x51 /home/pokitoz/Dropbox/DE0_SoC_VGA/sw/nios/application/VGA_Display_Gen1_bsp//libhal_bsp.a(alt_errno.o)
 .debug_line    0x0000000000001b1f       0xab /home/pokitoz/Dropbox/DE0_SoC_VGA/sw/nios/application/VGA_Display_Gen1_bsp//libhal_bsp.a(alt_exception_entry.o)
 .debug_line    0x0000000000001bca      0x17c /home/pokitoz/Dropbox/DE0_SoC_VGA/sw/nios/application/VGA_Display_Gen1_bsp//libhal_bsp.a(alt_find_dev.o)
 .debug_line    0x0000000000001d46       0x87 /home/pokitoz/Dropbox/DE0_SoC_VGA/sw/nios/application/VGA_Display_Gen1_bsp//libhal_bsp.a(alt_icache_flush_all.o)
 .debug_line    0x0000000000001dcd       0x50 /home/pokitoz/Dropbox/DE0_SoC_VGA/sw/nios/application/VGA_Display_Gen1_bsp//libhal_bsp.a(altera_nios2_qsys_irq.o)
 .debug_line    0x0000000000001e1d       0x7d /home/pokitoz/Dropbox/DE0_SoC_VGA/sw/nios/application/VGA_Display_Gen1_bsp//libhal_bsp.a(alt_icache_flush.o)
 .debug_line    0x0000000000001e9a       0x5c /home/pokitoz/altera/15.1/nios2eds/bin/gnu/H-x86_64-pc-linux-gnu/bin/../lib/gcc/nios2-elf/4.9.2/../../../../../H-x86_64-pc-linux-gnu/nios2-elf/lib/libsmallc.a(lib_a-int_errno.o)
 .debug_line    0x0000000000001ef6      0x15d /home/pokitoz/altera/15.1/nios2eds/bin/gnu/H-x86_64-pc-linux-gnu/bin/../lib/gcc/nios2-elf/4.9.2/../../../../../H-x86_64-pc-linux-gnu/nios2-elf/lib/libsmallc.a(lib_a-memcmp.o)
 .debug_line    0x0000000000002053      0x159 /home/pokitoz/altera/15.1/nios2eds/bin/gnu/H-x86_64-pc-linux-gnu/bin/../lib/gcc/nios2-elf/4.9.2/../../../../../H-x86_64-pc-linux-gnu/nios2-elf/lib/libsmallc.a(lib_a-strlen.o)

.debug_frame    0x0000000000000000      0x898
 *(.debug_frame)
 .debug_frame   0x0000000000000000       0x5c obj/default/DMA_Read.o
 .debug_frame   0x000000000000005c       0x38 obj/default/VGA_DMA_display.o
 .debug_frame   0x0000000000000094       0x5c obj/default/VGA_Display.o
 .debug_frame   0x00000000000000f0       0xdc obj/default/msgDMA.o
 .debug_frame   0x00000000000001cc       0x8c /home/pokitoz/altera/15.1/nios2eds/bin/gnu/H-x86_64-pc-linux-gnu/bin/../lib/gcc/nios2-elf/4.9.2/libgcc.a(lib2-divmod.o)
 .debug_frame   0x0000000000000258       0x20 /home/pokitoz/altera/15.1/nios2eds/bin/gnu/H-x86_64-pc-linux-gnu/bin/../lib/gcc/nios2-elf/4.9.2/../../../../../H-x86_64-pc-linux-gnu/nios2-elf/lib/libsmallc.a(lib_a-memcpy.o)
 .debug_frame   0x0000000000000278       0x50 /home/pokitoz/Dropbox/DE0_SoC_VGA/sw/nios/application/VGA_Display_Gen1_bsp//libhal_bsp.a(alt_iic.o)
 .debug_frame   0x00000000000002c8       0x30 /home/pokitoz/Dropbox/DE0_SoC_VGA/sw/nios/application/VGA_Display_Gen1_bsp//libhal_bsp.a(alt_iic_isr_register.o)
 .debug_frame   0x00000000000002f8       0x34 /home/pokitoz/Dropbox/DE0_SoC_VGA/sw/nios/application/VGA_Display_Gen1_bsp//libhal_bsp.a(alt_irq_handler.o)
 .debug_frame   0x000000000000032c       0x30 /home/pokitoz/Dropbox/DE0_SoC_VGA/sw/nios/application/VGA_Display_Gen1_bsp//libhal_bsp.a(alt_load.o)
 .debug_frame   0x000000000000035c       0x2c /home/pokitoz/Dropbox/DE0_SoC_VGA/sw/nios/application/VGA_Display_Gen1_bsp//libhal_bsp.a(alt_main.o)
 .debug_frame   0x0000000000000388       0x54 /home/pokitoz/Dropbox/DE0_SoC_VGA/sw/nios/application/VGA_Display_Gen1_bsp//libhal_bsp.a(alt_printf.o)
 .debug_frame   0x00000000000003dc       0x30 /home/pokitoz/Dropbox/DE0_SoC_VGA/sw/nios/application/VGA_Display_Gen1_bsp//libhal_bsp.a(alt_putchar.o)
 .debug_frame   0x000000000000040c       0x30 /home/pokitoz/Dropbox/DE0_SoC_VGA/sw/nios/application/VGA_Display_Gen1_bsp//libhal_bsp.a(alt_putstr.o)
 .debug_frame   0x000000000000043c       0x3c /home/pokitoz/Dropbox/DE0_SoC_VGA/sw/nios/application/VGA_Display_Gen1_bsp//libhal_bsp.a(alt_sys_init.o)
 .debug_frame   0x0000000000000478       0x20 /home/pokitoz/Dropbox/DE0_SoC_VGA/sw/nios/application/VGA_Display_Gen1_bsp//libhal_bsp.a(altera_avalon_jtag_uart_write.o)
 .debug_frame   0x0000000000000498      0x2a8 /home/pokitoz/Dropbox/DE0_SoC_VGA/sw/nios/application/VGA_Display_Gen1_bsp//libhal_bsp.a(altera_msgdma.o)
 .debug_frame   0x0000000000000740       0x30 /home/pokitoz/Dropbox/DE0_SoC_VGA/sw/nios/application/VGA_Display_Gen1_bsp//libhal_bsp.a(alt_busy_sleep.o)
 .debug_frame   0x0000000000000770       0x20 /home/pokitoz/Dropbox/DE0_SoC_VGA/sw/nios/application/VGA_Display_Gen1_bsp//libhal_bsp.a(alt_dcache_flush_all.o)
 .debug_frame   0x0000000000000790       0x2c /home/pokitoz/Dropbox/DE0_SoC_VGA/sw/nios/application/VGA_Display_Gen1_bsp//libhal_bsp.a(alt_dev_llist_insert.o)
 .debug_frame   0x00000000000007bc       0x3c /home/pokitoz/Dropbox/DE0_SoC_VGA/sw/nios/application/VGA_Display_Gen1_bsp//libhal_bsp.a(alt_find_dev.o)
 .debug_frame   0x00000000000007f8       0x20 /home/pokitoz/Dropbox/DE0_SoC_VGA/sw/nios/application/VGA_Display_Gen1_bsp//libhal_bsp.a(alt_icache_flush_all.o)
 .debug_frame   0x0000000000000818       0x20 /home/pokitoz/Dropbox/DE0_SoC_VGA/sw/nios/application/VGA_Display_Gen1_bsp//libhal_bsp.a(altera_nios2_qsys_irq.o)
 .debug_frame   0x0000000000000838       0x20 /home/pokitoz/Dropbox/DE0_SoC_VGA/sw/nios/application/VGA_Display_Gen1_bsp//libhal_bsp.a(alt_icache_flush.o)
 .debug_frame   0x0000000000000858       0x20 /home/pokitoz/altera/15.1/nios2eds/bin/gnu/H-x86_64-pc-linux-gnu/bin/../lib/gcc/nios2-elf/4.9.2/../../../../../H-x86_64-pc-linux-gnu/nios2-elf/lib/libsmallc.a(lib_a-memcmp.o)
 .debug_frame   0x0000000000000878       0x20 /home/pokitoz/altera/15.1/nios2eds/bin/gnu/H-x86_64-pc-linux-gnu/bin/../lib/gcc/nios2-elf/4.9.2/../../../../../H-x86_64-pc-linux-gnu/nios2-elf/lib/libsmallc.a(lib_a-strlen.o)

.debug_str      0x0000000000000000     0x18bb
 *(.debug_str)
 .debug_str     0x0000000000000000      0x163 obj/default/DMA_Read.o
                                        0x19f (size before relaxing)
 .debug_str     0x0000000000000163      0x2c0 obj/default/VGA_DMA_display.o
                                        0x459 (size before relaxing)
 .debug_str     0x0000000000000423       0x9b obj/default/VGA_Display.o
                                        0x215 (size before relaxing)
 .debug_str     0x00000000000004be      0x17b obj/default/msgDMA.o
                                        0x4e7 (size before relaxing)
 .debug_str     0x0000000000000639      0x16c /home/pokitoz/altera/15.1/nios2eds/bin/gnu/H-x86_64-pc-linux-gnu/bin/../lib/gcc/nios2-elf/4.9.2/libgcc.a(lib2-divmod.o)
                                        0x1b7 (size before relaxing)
 .debug_str     0x00000000000007a5      0x133 /home/pokitoz/altera/15.1/nios2eds/bin/gnu/H-x86_64-pc-linux-gnu/bin/../lib/gcc/nios2-elf/4.9.2/../../../../../H-x86_64-pc-linux-gnu/nios2-elf/lib/libsmallc.a(lib_a-memcpy.o)
                                        0x1cc (size before relaxing)
 .debug_str     0x00000000000008d8      0x121 /home/pokitoz/Dropbox/DE0_SoC_VGA/sw/nios/application/VGA_Display_Gen1_bsp//libhal_bsp.a(alt_iic.o)
                                        0x244 (size before relaxing)
 .debug_str     0x00000000000009f9       0x37 /home/pokitoz/Dropbox/DE0_SoC_VGA/sw/nios/application/VGA_Display_Gen1_bsp//libhal_bsp.a(alt_iic_isr_register.o)
                                        0x1fe (size before relaxing)
 .debug_str     0x0000000000000a30       0x3a /home/pokitoz/Dropbox/DE0_SoC_VGA/sw/nios/application/VGA_Display_Gen1_bsp//libhal_bsp.a(alt_irq_handler.o)
                                        0x188 (size before relaxing)
 .debug_str     0x0000000000000a6a       0x17 /home/pokitoz/Dropbox/DE0_SoC_VGA/sw/nios/application/VGA_Display_Gen1_bsp//libhal_bsp.a(alt_irq_vars.o)
                                        0x137 (size before relaxing)
 .debug_str     0x0000000000000a81      0x113 /home/pokitoz/Dropbox/DE0_SoC_VGA/sw/nios/application/VGA_Display_Gen1_bsp//libhal_bsp.a(alt_load.o)
                                        0x22d (size before relaxing)
 .debug_str     0x0000000000000b94       0x5e /home/pokitoz/Dropbox/DE0_SoC_VGA/sw/nios/application/VGA_Display_Gen1_bsp//libhal_bsp.a(alt_main.o)
                                        0x1a6 (size before relaxing)
 .debug_str     0x0000000000000bf2       0x59 /home/pokitoz/Dropbox/DE0_SoC_VGA/sw/nios/application/VGA_Display_Gen1_bsp//libhal_bsp.a(alt_printf.o)
                                        0x103 (size before relaxing)
 .debug_str     0x0000000000000c4b       0x60 /home/pokitoz/Dropbox/DE0_SoC_VGA/sw/nios/application/VGA_Display_Gen1_bsp//libhal_bsp.a(alt_putchar.o)
                                        0x17e (size before relaxing)
 .debug_str     0x0000000000000cab       0x1c /home/pokitoz/Dropbox/DE0_SoC_VGA/sw/nios/application/VGA_Display_Gen1_bsp//libhal_bsp.a(alt_putstr.o)
                                        0x18a (size before relaxing)
 .debug_str     0x0000000000000cc7       0x8a /home/pokitoz/Dropbox/DE0_SoC_VGA/sw/nios/application/VGA_Display_Gen1_bsp//libhal_bsp.a(alt_sys_init.o)
                                        0x3d4 (size before relaxing)
 .debug_str     0x0000000000000d51       0x2c /home/pokitoz/Dropbox/DE0_SoC_VGA/sw/nios/application/VGA_Display_Gen1_bsp//libhal_bsp.a(altera_avalon_jtag_uart_write.o)
                                        0x206 (size before relaxing)
 .debug_str     0x0000000000000d7d      0x8d8 /home/pokitoz/Dropbox/DE0_SoC_VGA/sw/nios/application/VGA_Display_Gen1_bsp//libhal_bsp.a(altera_msgdma.o)
                                        0xd96 (size before relaxing)
 .debug_str     0x0000000000001655       0x33 /home/pokitoz/Dropbox/DE0_SoC_VGA/sw/nios/application/VGA_Display_Gen1_bsp//libhal_bsp.a(alt_busy_sleep.o)
                                        0x15c (size before relaxing)
 .debug_str     0x0000000000001688       0x1f /home/pokitoz/Dropbox/DE0_SoC_VGA/sw/nios/application/VGA_Display_Gen1_bsp//libhal_bsp.a(alt_dcache_flush_all.o)
                                        0x146 (size before relaxing)
 .debug_str     0x00000000000016a7       0x36 /home/pokitoz/Dropbox/DE0_SoC_VGA/sw/nios/application/VGA_Display_Gen1_bsp//libhal_bsp.a(alt_dev_llist_insert.o)
                                        0x1bd (size before relaxing)
 .debug_str     0x00000000000016dd       0x14 /home/pokitoz/Dropbox/DE0_SoC_VGA/sw/nios/application/VGA_Display_Gen1_bsp//libhal_bsp.a(alt_errno.o)
                                        0x136 (size before relaxing)
 .debug_str     0x00000000000016f1       0x25 /home/pokitoz/Dropbox/DE0_SoC_VGA/sw/nios/application/VGA_Display_Gen1_bsp//libhal_bsp.a(alt_find_dev.o)
                                        0x1f2 (size before relaxing)
 .debug_str     0x0000000000001716       0x30 /home/pokitoz/Dropbox/DE0_SoC_VGA/sw/nios/application/VGA_Display_Gen1_bsp//libhal_bsp.a(alt_icache_flush_all.o)
                                        0x15f (size before relaxing)
 .debug_str     0x0000000000001746       0x20 /home/pokitoz/Dropbox/DE0_SoC_VGA/sw/nios/application/VGA_Display_Gen1_bsp//libhal_bsp.a(altera_nios2_qsys_irq.o)
                                        0x14d (size before relaxing)
 .debug_str     0x0000000000001766       0x1b /home/pokitoz/Dropbox/DE0_SoC_VGA/sw/nios/application/VGA_Display_Gen1_bsp//libhal_bsp.a(alt_icache_flush.o)
                                        0x14c (size before relaxing)
 .debug_str     0x0000000000001781       0xc6 /home/pokitoz/altera/15.1/nios2eds/bin/gnu/H-x86_64-pc-linux-gnu/bin/../lib/gcc/nios2-elf/4.9.2/../../../../../H-x86_64-pc-linux-gnu/nios2-elf/lib/libsmallc.a(lib_a-int_errno.o)
                                        0x1b1 (size before relaxing)
 .debug_str     0x0000000000001847       0x3a /home/pokitoz/altera/15.1/nios2eds/bin/gnu/H-x86_64-pc-linux-gnu/bin/../lib/gcc/nios2-elf/4.9.2/../../../../../H-x86_64-pc-linux-gnu/nios2-elf/lib/libsmallc.a(lib_a-memcmp.o)
                                        0x1b8 (size before relaxing)
 .debug_str     0x0000000000001881       0x3a /home/pokitoz/altera/15.1/nios2eds/bin/gnu/H-x86_64-pc-linux-gnu/bin/../lib/gcc/nios2-elf/4.9.2/../../../../../H-x86_64-pc-linux-gnu/nios2-elf/lib/libsmallc.a(lib_a-strlen.o)
                                        0x1be (size before relaxing)

.debug_loc      0x0000000000000000     0x2264
 *(.debug_loc)
 .debug_loc     0x0000000000000000       0x78 obj/default/DMA_Read.o
 .debug_loc     0x0000000000000078       0x14 obj/default/VGA_DMA_display.o
 .debug_loc     0x000000000000008c      0x179 obj/default/VGA_Display.o
 .debug_loc     0x0000000000000205      0x403 obj/default/msgDMA.o
 .debug_loc     0x0000000000000608      0x273 /home/pokitoz/altera/15.1/nios2eds/bin/gnu/H-x86_64-pc-linux-gnu/bin/../lib/gcc/nios2-elf/4.9.2/libgcc.a(lib2-divmod.o)
 .debug_loc     0x000000000000087b      0x11b /home/pokitoz/altera/15.1/nios2eds/bin/gnu/H-x86_64-pc-linux-gnu/bin/../lib/gcc/nios2-elf/4.9.2/../../../../../H-x86_64-pc-linux-gnu/nios2-elf/lib/libsmallc.a(lib_a-memcpy.o)
 .debug_loc     0x0000000000000996      0x129 /home/pokitoz/Dropbox/DE0_SoC_VGA/sw/nios/application/VGA_Display_Gen1_bsp//libhal_bsp.a(alt_iic.o)
 .debug_loc     0x0000000000000abf      0x193 /home/pokitoz/Dropbox/DE0_SoC_VGA/sw/nios/application/VGA_Display_Gen1_bsp//libhal_bsp.a(alt_iic_isr_register.o)
 .debug_loc     0x0000000000000c52       0x98 /home/pokitoz/Dropbox/DE0_SoC_VGA/sw/nios/application/VGA_Display_Gen1_bsp//libhal_bsp.a(alt_irq_handler.o)
 .debug_loc     0x0000000000000cea      0x1c6 /home/pokitoz/Dropbox/DE0_SoC_VGA/sw/nios/application/VGA_Display_Gen1_bsp//libhal_bsp.a(alt_printf.o)
 .debug_loc     0x0000000000000eb0       0x2c /home/pokitoz/Dropbox/DE0_SoC_VGA/sw/nios/application/VGA_Display_Gen1_bsp//libhal_bsp.a(alt_putchar.o)
 .debug_loc     0x0000000000000edc       0x37 /home/pokitoz/Dropbox/DE0_SoC_VGA/sw/nios/application/VGA_Display_Gen1_bsp//libhal_bsp.a(alt_putstr.o)
 .debug_loc     0x0000000000000f13       0x21 /home/pokitoz/Dropbox/DE0_SoC_VGA/sw/nios/application/VGA_Display_Gen1_bsp//libhal_bsp.a(alt_sys_init.o)
 .debug_loc     0x0000000000000f34       0x8b /home/pokitoz/Dropbox/DE0_SoC_VGA/sw/nios/application/VGA_Display_Gen1_bsp//libhal_bsp.a(altera_avalon_jtag_uart_write.o)
 .debug_loc     0x0000000000000fbf     0x1037 /home/pokitoz/Dropbox/DE0_SoC_VGA/sw/nios/application/VGA_Display_Gen1_bsp//libhal_bsp.a(altera_msgdma.o)
 .debug_loc     0x0000000000001ff6       0x75 /home/pokitoz/Dropbox/DE0_SoC_VGA/sw/nios/application/VGA_Display_Gen1_bsp//libhal_bsp.a(alt_busy_sleep.o)
 .debug_loc     0x000000000000206b       0x1f /home/pokitoz/Dropbox/DE0_SoC_VGA/sw/nios/application/VGA_Display_Gen1_bsp//libhal_bsp.a(alt_dcache_flush_all.o)
 .debug_loc     0x000000000000208a       0x58 /home/pokitoz/Dropbox/DE0_SoC_VGA/sw/nios/application/VGA_Display_Gen1_bsp//libhal_bsp.a(alt_dev_llist_insert.o)
 .debug_loc     0x00000000000020e2       0x7e /home/pokitoz/Dropbox/DE0_SoC_VGA/sw/nios/application/VGA_Display_Gen1_bsp//libhal_bsp.a(alt_find_dev.o)
 .debug_loc     0x0000000000002160       0x52 /home/pokitoz/Dropbox/DE0_SoC_VGA/sw/nios/application/VGA_Display_Gen1_bsp//libhal_bsp.a(alt_icache_flush.o)
 .debug_loc     0x00000000000021b2       0x94 /home/pokitoz/altera/15.1/nios2eds/bin/gnu/H-x86_64-pc-linux-gnu/bin/../lib/gcc/nios2-elf/4.9.2/../../../../../H-x86_64-pc-linux-gnu/nios2-elf/lib/libsmallc.a(lib_a-memcmp.o)
 .debug_loc     0x0000000000002246       0x1e /home/pokitoz/altera/15.1/nios2eds/bin/gnu/H-x86_64-pc-linux-gnu/bin/../lib/gcc/nios2-elf/4.9.2/../../../../../H-x86_64-pc-linux-gnu/nios2-elf/lib/libsmallc.a(lib_a-strlen.o)

.debug_macinfo
 *(.debug_macinfo)

.debug_weaknames
 *(.debug_weaknames)

.debug_funcnames
 *(.debug_funcnames)

.debug_typenames
 *(.debug_typenames)

.debug_varnames
 *(.debug_varnames)

.debug_alt_sim_info
                0x0000000000000000       0x60
 *(.debug_alt_sim_info)
 .debug_alt_sim_info
                0x0000000000000000       0x30 /home/pokitoz/Dropbox/DE0_SoC_VGA/sw/nios/application/VGA_Display_Gen1_bsp//obj/HAL/src/crt0.o
 .debug_alt_sim_info
                0x0000000000000030       0x30 /home/pokitoz/Dropbox/DE0_SoC_VGA/sw/nios/application/VGA_Display_Gen1_bsp//libhal_bsp.a(alt_busy_sleep.o)
                0x0000000010120000                __alt_data_end = 0x10120000
                0x0000000010120000                PROVIDE (__alt_stack_pointer, __alt_data_end)
                0x0000000010102630                PROVIDE (__alt_stack_limit, __alt_stack_base)
                0x0000000010102630                PROVIDE (__alt_heap_start, end)
                0x0000000010120000                PROVIDE (__alt_heap_limit, 0x10120000)
OUTPUT(VGA_Display_Gen1.elf elf32-littlenios2)

.debug_ranges   0x0000000000000000      0x208
 .debug_ranges  0x0000000000000000       0x20 /home/pokitoz/Dropbox/DE0_SoC_VGA/sw/nios/application/VGA_Display_Gen1_bsp//obj/HAL/src/crt0.o
 .debug_ranges  0x0000000000000020       0x18 obj/default/VGA_DMA_display.o
 .debug_ranges  0x0000000000000038       0x18 obj/default/msgDMA.o
 .debug_ranges  0x0000000000000050       0x10 /home/pokitoz/altera/15.1/nios2eds/bin/gnu/H-x86_64-pc-linux-gnu/bin/../lib/gcc/nios2-elf/4.9.2/../../../../../H-x86_64-pc-linux-gnu/nios2-elf/lib/libsmallc.a(lib_a-memcpy.o)
 .debug_ranges  0x0000000000000060       0x28 /home/pokitoz/Dropbox/DE0_SoC_VGA/sw/nios/application/VGA_Display_Gen1_bsp//libhal_bsp.a(alt_irq_entry.o)
 .debug_ranges  0x0000000000000088       0x10 /home/pokitoz/Dropbox/DE0_SoC_VGA/sw/nios/application/VGA_Display_Gen1_bsp//libhal_bsp.a(alt_irq_handler.o)
 .debug_ranges  0x0000000000000098       0x48 /home/pokitoz/Dropbox/DE0_SoC_VGA/sw/nios/application/VGA_Display_Gen1_bsp//libhal_bsp.a(alt_load.o)
 .debug_ranges  0x00000000000000e0       0x18 /home/pokitoz/Dropbox/DE0_SoC_VGA/sw/nios/application/VGA_Display_Gen1_bsp//libhal_bsp.a(alt_printf.o)
 .debug_ranges  0x00000000000000f8       0x90 /home/pokitoz/Dropbox/DE0_SoC_VGA/sw/nios/application/VGA_Display_Gen1_bsp//libhal_bsp.a(altera_msgdma.o)
 .debug_ranges  0x0000000000000188       0x20 /home/pokitoz/Dropbox/DE0_SoC_VGA/sw/nios/application/VGA_Display_Gen1_bsp//libhal_bsp.a(alt_dev_llist_insert.o)
 .debug_ranges  0x00000000000001a8       0x30 /home/pokitoz/Dropbox/DE0_SoC_VGA/sw/nios/application/VGA_Display_Gen1_bsp//libhal_bsp.a(alt_exception_entry.o)
 .debug_ranges  0x00000000000001d8       0x10 /home/pokitoz/Dropbox/DE0_SoC_VGA/sw/nios/application/VGA_Display_Gen1_bsp//libhal_bsp.a(alt_icache_flush.o)
 .debug_ranges  0x00000000000001e8       0x10 /home/pokitoz/altera/15.1/nios2eds/bin/gnu/H-x86_64-pc-linux-gnu/bin/../lib/gcc/nios2-elf/4.9.2/../../../../../H-x86_64-pc-linux-gnu/nios2-elf/lib/libsmallc.a(lib_a-memcmp.o)
 .debug_ranges  0x00000000000001f8       0x10 /home/pokitoz/altera/15.1/nios2eds/bin/gnu/H-x86_64-pc-linux-gnu/bin/../lib/gcc/nios2-elf/4.9.2/../../../../../H-x86_64-pc-linux-gnu/nios2-elf/lib/libsmallc.a(lib_a-strlen.o)
